(dp0
S'nwt'
p1
S'New With Tags'
p2
sS'patd'
p3
S'Panic At The Disco (band)'
p4
sS'inpo'
p5
S'In No Particular Order'
p6
sS'nws'
p7
S'Not Work Safe - for messages/sites containing adult content'
p8
sS'ciao'
p9
S'Italian for Hi or Bye'
p10
sS'tmd'
p11
S'Damn in Chinese'
p12
sS'thin film transistor'
p13
S''
p14
sS'nmw'
p15
S'No Matter What'
p16
sS'misspelling of omg'
p17
g14
sS'\\o/'
p18
S'Happy, arms in the air'
p19
sS'british telecom'
p20
g14
sS'swag'
p21
S'Scientific Wild A$$ed Guess'
p22
sS'buddy'
p23
S'Friend'
p24
sS'inb4'
p25
S'In Before (already mentioned)'
p26
sS'ttyn'
p27
S'Talk To You Never'
p28
sS'ttym'
p29
S'Talk to You Ma\xc3\xb1ana'
p30
sS'ttyl'
p31
S'Talk To You Later'
p32
sS'whack'
p33
S'Bad'
p34
sS'auo'
p35
S"I don't know"
p36
sS'lofl'
p37
S'Laughing Out F***ing Loud'
p38
sS'mwc'
p39
S'Married With Children'
p40
sS'mwa'
p41
S'Kiss'
p42
sS'ttyt'
p43
S'Talk To You Tomorrow'
p44
sS'ttys'
p45
S'Talk to ya soon'
p46
sS'mwf'
p47
S'Married White Female'
p48
sS'trousers'
p49
g14
sS'silent chuckle'
p50
g14
sS'sped'
p51
S'Someone who needs special education'
p52
sS'ilysm'
p53
S'I love you so much'
p54
sS'mwm'
p55
S'Married White Male'
p56
sS'@'
p57
S'At'
p58
sS'klpd'
p59
S'Kahre Land Pe Dhokha (Hindi/Urdu) sexual frustration, rejection'
p60
sS'iyd'
p61
S'In Your Dreams'
p62
sS'dlam'
p63
S"Don't Laugh At Me"
p64
sS'wfh'
p65
S'Working From Home'
p66
sS'eprom'
p67
S'Electronically Programmable ROM'
p68
sS'lurv'
p69
S'Love'
p70
sS'omgna'
p71
S'O MMY GOSH NOT AGAIN'
p72
sS'voip'
p73
S'Voice Over IP - internet telephony'
p74
sS'lurve'
p75
S'Love'
p76
sS'tinar'
p77
S'This Is Not A Recommendation'
p78
sS'cml'
p79
S'Call Me Later'
p80
sS'cmi'
p81
S'Count Me In'
p82
sS'fhe'
p83
S'First Hand Experience'
p84
sS'okies'
p85
S'Okay'
p86
sS'cmd'
p87
S'Command'
p88
sS'cmc'
p89
S'Casi Me Cago (Spanish LOL)'
p90
sS'nmr'
p91
S'Not My Responsibility'
p92
sS'inbd'
p93
S"It's no big deal"
p94
sS'ignts'
p95
S"I've Got Nothing To Say"
p96
sS'cmu'
p97
S'Cracks Me Up'
p98
sS'cmt'
p99
S'Comment'
p100
sS'iyo'
p101
S'In Your Opinion'
p102
sS'party pooper'
p103
S'A person who ruins the mood with their attitude'
p104
sS'teotwawki'
p105
S'the end of the world as we know it'
p106
sS'las vegas'
p107
g14
sS'ong '
p108
S'Misspelling of OMG'
p109
sS'10x'
p110
S'Thanks'
p111
sS'sgtm'
p112
S'Sounds Good To Me'
p113
sS'bnwot'
p114
S'Brand New Without Tags'
p115
sS'bwt'
p116
S'Misspelling of BTW'
p117
sS'psu'
p118
S'Power Supply Unit'
p119
sS'n'
p120
S'and'
p121
sS'sootb'
p122
S'Straight Out Of The Box'
p123
sS'o.o'
p124
S'Wide eyed'
p125
sS'established'
p126
g14
sS'qtpi'
p127
S'Cutie Pie'
p128
sS'iytt'
p129
S'If You Think That'
p130
sS'slm'
p131
S'Salaam (hello)'
p132
sS'neg'
p133
S'Negative'
p134
sS'ned'
p135
S'Non-Educated Delinquent'
p136
sS'h&k'
p137
S'Hugs and Kisses'
p138
sS'wjd'
p139
S'What Jesus Did'
p140
sS'bnib'
p141
S'Brand New In Box'
p142
sS'imco'
p143
S'In My Considered Opinion'
p144
sS'ndsos'
p145
S'New Day, Same Old Shit'
p146
sS'm2fp'
p147
S'my two( three , four etc...) fav people'
p148
sS'fcuk'
p149
S'French Connection United Kingdom'
p150
sS'sbm'
p151
S'Single Black Male'
p152
sS'med'
p153
S'Medication'
p154
sS'otooh'
p155
S'On The Other Other Hand'
p156
sS'aigf'
p157
S'All In Good Fun'
p158
sS'meh'
p159
S'Indifference, equivalent to shoulder shrug'
p160
sS'so you mad?'
p161
g14
sS'bloody hell'
p162
g14
sS'glta'
p163
S'Good Luck to All'
p164
sS'digits'
p165
S'Telephone number'
p166
sS'kudos'
p167
S'Respect and recognition'
p168
sS'big head'
p169
g14
sS'ssl'
p170
S'Secure Socket Layer'
p171
sS'roflmao'
p172
S'Rolling On Floor, Laughing My A$$ Off'
p173
sS'gla'
p174
S'Good Luck All'
p175
sS'k'
p176
S'OK'
p177
sS'ty'
p178
S'Thank You'
p179
sS'glf'
p180
S'Group Looking For'
p181
sS'tv'
p182
S'Television'
p183
sS'wft'
p184
S'Well F*** That'
p185
sS'dro'
p186
S'HyDROponically grown marijuana'
p187
sS'iokiyar'
p188
S"It's Okay If You're A Republican"
p189
sS'rly'
p190
S'Really'
p191
sS'aka'
p192
S'Also Known As'
p193
sS'tweet'
p194
S'A post on Twitter'
p195
sS'ne1'
p196
S'Anyone'
p197
sS'tmfd'
p198
S'Too Much F***ing Drama'
p199
sS'dad over shoulder'
p200
g14
sS'brt'
p201
S'Be Right There'
p202
sS'ts'
p203
S'Transsexual'
p204
sS'lolza'
p205
S'LOL'
p206
sS'swak'
p207
S'Sealed With A Kiss'
p208
sS'brh'
p209
S'Be Right Here'
p210
sS'no comment'
p211
g14
sS'ilyt'
p212
S'I Love You Too'
p213
sS'bre'
p214
S'Sexy girl'
p215
sS'brd'
p216
S'Black Rock Depths (WoW)'
p217
sS'brb'
p218
S'Be Right Back'
p219
sS'ebony'
p220
S'Dark skin tone'
p221
sS'star wars'
p222
g14
sS'dnd'
p223
S'Do Not Disturb'
p224
sS'dnm'
p225
S'Does Not Matter'
p226
sS'dno'
p227
S"Don't Know"
p228
sS'plox'
p229
S'Please'
p230
sS'dnt'
p231
S"Don't"
p232
sS'dnw'
p233
S'Do Not Want'
p234
sS'bdsm'
p235
S'Bondage and Discipline, Sadism and Masochism'
p236
sS'm2'
p237
S'Me Too'
p238
sS'pacific standard time'
p239
g14
sS'm8'
p240
S'Mate'
p241
sS'tk'
p242
S'Team Killer'
p243
sS'undercarriage'
p244
S'Crotch'
p245
sS'musm'
p246
S'Miss U So Much'
p247
sS'1437'
p248
S'I Love You Forever'
p249
sS'jms'
p250
S'Just Making Sure'
p251
sS'wuup2'
p252
S'What Are You Up To?'
p253
sS'fuster cluck'
p254
S'Cluster F***'
p255
sS'hols'
p256
S'Holidays, vacation'
p257
sS'phony'
p258
S'Fake object or person'
p259
sS'jmt'
p260
S'Just My Thoughts'
p261
sS'99'
p262
S'Parent stopped watching'
p263
sS'(_8^(i)'
p264
S'Homer Simpson'
p265
sS'counter offer'
p266
g14
sS'jmo'
p267
S'Just My Opinion'
p268
sS'toodle'
p269
S'Goodbye, toodle-pip'
p270
sS'diligaf'
p271
S'Do I Look Like I Give A F***'
p272
sS'p4p'
p273
S'Pound For Pound'
p274
sS'tnt'
p275
S"'Til Next Time"
p276
sS'mf'
p277
S'Mother F***er'
p278
sS'erp'
p279
S'Erotic Role-Play'
p280
sS'mc'
p281
S'Master of Ceremonies'
p282
sS'mb'
p283
S'Megabyte'
p284
sS'mm'
p285
S'Married Man'
p286
sS'mo'
p287
S'Modus Operandi (method of operation)'
p288
sS'aiui'
p289
S'As I Understand it'
p290
sS'ik'
p291
S'I Know'
p292
sS'mk'
p293
S'mm OK'
p294
sS'mj'
p295
S'Michael Jackson'
p296
sS'mu'
p297
S'Multi User'
p298
sS'motwyw'
p299
S'Make Of That What You Will'
p300
sS'mp'
p301
S'Military Police'
p302
sS'ms'
p303
S'Maple Story (MMORPG)'
p304
sS'yup'
p305
S'Yes'
p306
sS'tno'
p307
S'Trust No One'
p308
sS'ta'
p309
S'Thank you'
p310
sS'wfc'
p311
S'Who F***ing Cares?'
p312
sS'555'
p313
S'Thai for HaHaHa'
p314
sS'ygm'
p315
S"You've Got Mail"
p316
sS'peeing my pants'
p317
g14
sS'ygi'
p318
S'You Got It'
p319
sS'homie'
p320
S'Homeboy'
p321
sS'smth'
p322
S'Something'
p323
sS'convincing transvestite'
p324
g14
sS'ygp'
p325
S'YOU GOT PWNED!'
p326
sS'ilym'
p327
S'I Love You More'
p328
sS'dyke'
p329
S'Lesbian'
p330
sS'fbsm'
p331
S'Full Body Sensual Massage'
p332
sS'hog'
p333
S'A Harley Davidson mortorcycle'
p334
sS'ib'
p335
S"I'm Back"
p336
sS'iggy'
p337
S'Ignore'
p338
sS'yhbt'
p339
S'You Have Been Trolled'
p340
sS'hon'
p341
S'Honey'
p342
sS'ie'
p343
S'Id Est (that is)'
p344
sS'damage'
p345
S'Cost of something'
p346
sS'hoh'
p347
S'Head Over Heels'
p348
sS'eno'
p349
S'Awesome, cool'
p350
sS'ttfn'
p351
S'Ta-Ta For Now'
p352
sS'clubbing'
p353
S'Visiting nightclubs'
p354
sS'ent'
p355
S"Isn't"
p356
sS'hos'
p357
S'Husband Over Shoulder'
p358
sS'ruok'
p359
S'Are You OK?'
p360
sS'lal'
p361
S'Laughing A Lot/Little'
p362
sS'lam'
p363
S'Leave A Message'
p364
sS'lan'
p365
S'Local Area Network'
p366
sS'bbml'
p367
S'Be Back Much Later'
p368
sS'gmta'
p369
S'Great Minds Think Alike'
p370
sS'bfffl'
p371
S'Best Friend Forever For Life'
p372
sS'ovo'
p373
S'Obviously'
p374
sS'w2f'
p375
S'Way Too Funny'
p376
sS'vfl'
p377
S'Virgin For Life'
p378
sS'gtog'
p379
S'Got To Go'
p380
sS'just in time'
p381
g14
sS'tysm'
p382
S'Thank You So Much'
p383
sS'greek'
p384
S'Anal sex'
p385
sS'f***s sake'
p386
g14
sS'green'
p387
S'Unexperienced'
p388
sS'rwys'
p389
S'Reap What You Sow'
p390
sS'yqw'
p391
S"You're Quite Welcome"
p392
sS'gran turismo'
p393
g14
sS'nsfa'
p394
S'Not Safe For Anyone'
p395
sS'wttir'
p396
S'When The Time Is Right'
p397
sS'wuv'
p398
S'Love'
p399
sS'wut'
p400
S'What'
p401
sS'gal pal'
p402
S'Man who hangs around with girls'
p403
sS'one track mind'
p404
g14
sS'new york airport'
p405
g14
sS'sqtm'
p406
S'Smiling Quietly To Myself'
p407
sS'fifo'
p408
S'First In First Out'
p409
sS'wub'
p410
S'Love'
p411
sS'hbic'
p412
S'Head Bitch In Charge'
p413
sS'nsfw'
p414
S'Not Safe For Work'
p415
sS'nsfv'
p416
S'Not Safe for Viewing/Vegetarians/Vegans'
p417
sS'wud'
p418
S'What You Doing?'
p419
sS'japan'
p420
S'Just Always Pray At Night'
p421
sS'motku'
p422
S'Master Of The Known Universe'
p423
sS'wum'
p424
S'Woman'
p425
sS'ima'
p426
S'In my opinion'
p427
sS'unicef'
p428
S"United Nations Children's Fund"
p429
sS'ime'
p430
S'In My Experience'
p431
sS'imh'
p432
S'In My Head'
p433
sS'exclamation of approval'
p434
g14
sS'ywsyls'
p435
S'You Win Some, You Lose Some'
p436
sS'imo'
p437
S'In My Opinion'
p438
sS'better'
p439
g14
sS'foff'
p440
S'F*** Off'
p441
sS'4eva'
p442
S'Forever'
p443
sS'lmso'
p444
S'Laughing My Socks Off'
p445
sS'bf4l'
p446
S'best friends for life'
p447
sS's4s'
p448
S'Support For Support (MySpace)'
p449
sS'imy'
p450
S'i miss you'
p451
sS'ilyaaf'
p452
S'I Love You As A Friend'
p453
sS'fofl'
p454
S'Falling On Floor Laughing'
p455
sS'fin'
p456
S'Finished'
p457
sS'swnd '
p458
S'Sound'
p459
sS'fil'
p460
S'Father-in-law'
p461
sS'them'
p462
g14
sS'swpf'
p463
S'Single White Professional Female'
p464
sS'bang'
p465
S'Have sex'
p466
sS'owned'
p467
S'Dominated'
p468
sS'wuwh'
p469
S'Wish You Were Here'
p470
sS'ttul'
p471
S'Talk To You Later'
p472
sS'yello'
p473
S'Hello'
p474
sS'street worker'
p475
g14
sS'l'
p476
S'Laugh'
p477
sS'ptdr'
p478
S'Pete De Rire (French for LOL)'
p479
sS'hhvf'
p480
S'Ha-ha, Very Funny'
p481
sS'mob'
p482
S'Hostile Creature (Gaming)'
p483
sS'gprs'
p484
S'General Packet Radio Services'
p485
sS'smexy'
p486
S'Smart and sexy'
p487
sS'hmtrud'
p488
S'how many thing r u doing?'
p489
sS'sfsg'
p490
S'So Far So Good'
p491
sS'p&c'
p492
S'Point and Click'
p493
sS'skins'
p494
S'Cigarette papers'
p495
sS'dawg'
p496
S'Close Friend'
p497
sS'mdr'
p498
S'Mort De Rire (=LOL in French)'
p499
sS'aids'
p500
S'Acquired Immune Deficiency Syndrome'
p501
sS"w'ever"
p502
S'Whatever'
p503
sS'ntwf'
p504
S'Neopian Times Writers Forum'
p505
sS'rt'
p506
S'Retweet'
p507
sS'ru'
p508
S'aRe yoU?'
p509
sS'gon'
p510
S'go away noob'
p511
sS'goi'
p512
S'Get Over It'
p513
sS'rr'
p514
S'Restroom'
p515
sS'rs'
p516
S'RuneScape, a MMORPG'
p517
sS'gog'
p518
S'Person from north Wales'
p519
sS'sms'
p520
S'Short Message Service'
p521
sS'nib'
p522
S'New In Box'
p523
sS'dsl'
p524
S'Digital Subscriber Line'
p525
sS'nalopkt'
p526
S'Not A Lot Of People Know That.'
p527
sS'nite'
p528
S'Good Night'
p529
sS'bthom'
p530
S'Beats The Hell Outta Me!'
p531
sS'gou'
p532
S'Good On You'
p533
sS'smf'
p534
S'Sick/Stupid Mother F***er'
p535
sS'dsd'
p536
S'Do Some Damage'
p537
sS'smd'
p538
S'Suck My Dick'
p539
sS'gos'
p540
S'Girlfriend Over Shoulder'
p541
sS'nty'
p542
S'No Thank You'
p543
sS'wsw'
p544
S'Woman Seeking Woman'
p545
sS'arpanet'
p546
S'Advanced Research Projects Agency Network (early internet)'
p547
sS'michael jordan'
p548
g14
sS'ntp'
p549
S'Need To Pee'
p550
sS'nts'
p551
S'Nothing To Say'
p552
sS'ntt'
p553
S'Name That Tune'
p554
sS'ntw'
p555
S'Not To Worry'
p556
sS'idbi'
p557
S"I Don't Believe It"
p558
sS'mhua'
p559
S'love'
p560
sS'ntl'
p561
S'NeverTheLess'
p562
sS'ntn'
p563
S'No Thanks Needed'
p564
sS'jks'
p565
S'Jokes'
p566
sS'lesbo'
p567
S'Lesbian'
p568
sS'fotr'
p569
S'Fellowship of the Ring (Tolkien)'
p570
sS'atf'
p571
S'All Time Favorite'
p572
sS'sys'
p573
S'See Ya Soon'
p574
sS'atd'
p575
S'Attention to Detail'
p576
sS'atb'
p577
S'all the best'
p578
sS'iss'
p579
S'International Space Station'
p580
sS'sahm'
p581
S'Stay At Home Mom'
p582
sS'atm'
p583
S'At The Moment'
p584
sS'atk'
p585
S'Attack'
p586
sS'ups'
p587
S'United Parcel Service'
p588
sS'atv'
p589
S'All Terrain Vehicle'
p590
sS'tsm'
p591
S'Thanks So Much'
p592
sS'att'
p593
S'At This Time'
p594
sS'iso'
p595
S'In Search Of'
p596
sS':o)'
p597
S'Clown nose smiley face'
p598
sS'd&d'
p599
S'Dungeons and Dragons'
p600
sS'isa'
p601
S'Inshaa Allah (Arabic), OK'
p602
sS'sfam'
p603
S'Sister From Another Mister'
p604
sS'ayor'
p605
S'At Your Own Risk'
p606
sS'nhf'
p607
S'No Hard Feelings'
p608
sS'minga'
p609
S'Minger, ugly person'
p610
sS'>3'
p611
S'Evil but happy'
p612
sS'kfc'
p613
S'Kentucky Fried Chicken'
p614
sS'nhs'
p615
S'National Health Service'
p616
sS'ballin'
p617
S'Playing basketball'
p618
sS'wasf'
p619
S'We Are So F***ed'
p620
sS'toy'
p621
S'Thinking Of You'
p622
sS'nvmd'
p623
S'Never Mind'
p624
sS'nttawwt'
p625
S"Not That There's Anything Wrong With That"
p626
sS'tsk'
p627
S'Sound of annoyance'
p628
sS'toh'
p629
S'The Other Half'
p630
sS'tol'
p631
S'Thinking Out Loud'
p632
sS'tom'
p633
S'Time Of Month'
p634
sS'kewl'
p635
S'Cool'
p636
sS'eqe'
p637
S'Easy Quick Efficient'
p638
sS'wubu2'
p639
S'What Have You Been Up To?'
p640
sS'kiwi'
p641
S'A person from New Zealand'
p642
sS'ovno'
p643
S'Or Very Near Offer'
p644
sS'tool'
p645
S'Person of low intelligence, a fool'
p646
sS'tarfu'
p647
S'Things Are Really Fouled Up'
p648
sS'wwotw'
p649
S'Wicked Witch Of The West'
p650
sS'gyt'
p651
S'Get Yourself Tested'
p652
sS'itym'
p653
S'I Think You Mean'
p654
sS'tgal'
p655
S'Think Globally, Act Locally'
p656
sS'ityf'
p657
S"I Think You'll Find"
p658
sS'kty'
p659
S'Ok, Thank You'
p660
sS'qwertyuiop'
p661
S'Bored'
p662
sS'gtbosh'
p663
S'Glad To Be Of Some Help'
p664
sS'idly'
p665
S"I Don't Love/Like You"
p666
sS'idle'
p667
S'Inactive'
p668
sS'not announced'
p669
g14
sS'biffl'
p670
S'Best Internet Friend For Life'
p671
sS'raf'
p672
S'Rough As F***'
p673
sS'meme'
p674
S'An idea that is spread among blogs'
p675
sS'lbs'
p676
S'Pounds (weight)'
p677
sS'lbr'
p678
S'Loser Beyond Repair'
p679
sS'runner'
p680
S'Loose woman'
p681
sS'chea'
p682
S'Yeah'
p683
sS'^o^'
p684
S'Hurrah'
p685
sS'rah'
p686
S'Pompous or superior person'
p687
sS'lbd'
p688
S'Little Black Dress'
p689
sS'rotffnar'
p690
S'Rolling On The Floor For No Apparent Reason'
p691
sS'mint'
p692
S'Nice, cool'
p693
sS'vgl'
p694
S'Very Good Looking'
p695
sS'usbm'
p696
S'United States Black Metal'
p697
sS'thn'
p698
S'Then'
p699
sS'vgg'
p700
S'Very Good Game'
p701
sS'nbf'
p702
S'New Best Friend'
p703
sS'gief'
p704
S'Give'
p705
sS'kiwifruit'
p706
g14
sS'zimbo'
p707
S'Person from Zimbabwe'
p708
sS'vgp'
p709
S'visible granny pants'
p710
sS'aysos'
p711
S'Are You Stupid Or Something?'
p712
sS'rhcp'
p713
S'Red Hot Chili Peppers (Band)'
p714
sS'tyl'
p715
S'Text You Later'
p716
sS'tym'
p717
S'Thank You Much'
p718
sS'moobs'
p719
S'man boobs'
p720
sS'bst'
p721
S'But Seriously Though'
p722
sS'wnditwb'
p723
S'We Never Did It This Way Before'
p724
sS'tyb'
p725
S'Try Your Best'
p726
sS'lovl'
p727
S'Laughing Out Very Loud'
p728
sS'as of now'
p729
g14
sS'nooner'
p730
S'Mid day sex'
p731
sS'tyt'
p732
S'Take Your Time'
p733
sS'bsf'
p734
S'But Seriously Folks'
p735
sS'lmoa'
p736
S'Misspelling of LMAO'
p737
sS'qyb'
p738
S'Quit Your Bitching'
p739
sS'moolah'
p740
S'Money'
p741
sS'lylt'
p742
S'Love You Long Time'
p743
sS'peers'
p744
S'People in the same group, equals in age, background etc'
p745
sS'dol'
p746
S'Dying Of Laughter'
p747
sS'dom'
p748
S'Domainant person in BDSM'
p749
sS'doc'
p750
S'Doctor'
p751
sS'doa'
p752
S'Dead On Arrival'
p753
sS'dof'
p754
S'Depth of Field'
p755
sS'dog'
p756
S'Telephone'
p757
sS'dod'
p758
S'Day of Defeat'
p759
sS'doe'
p760
S'Depends On Experience'
p761
sS'pomg'
p762
S'Oh My God (variation)'
p763
sS'aunt'
p764
S'C***'
p765
sS'call of duty'
p766
g14
sS'yano'
p767
S'You Know'
p768
sS'original character'
p769
g14
sS'dot'
p770
S'Damage Over Time'
p771
sS'rtf'
p772
S'return the favour'
p773
sS'poppers'
p774
S'Amyl nitrate (recreational drug)'
p775
sS'bomb'
p776
S'Something really bad'
p777
sS'>.>'
p778
S'Suspicious, wary'
p779
sS'popo'
p780
S'Police Officer(s)'
p781
sS'14344'
p782
S'I Love You Very Much (letters in each word)'
p783
sS'd8'
p784
S'Date'
p785
sS'internet explorer'
p786
g14
sS'tbtp'
p787
S"That's Beside The Point"
p788
sS'wahm'
p789
S'Work At Home Mom'
p790
sS'hru'
p791
S'How Are You?'
p792
sS'underpants'
p793
g14
sS'eotwawki'
p794
S'End Of The World As We Know It'
p795
sS'arpa'
p796
S'Advanced Research Projects Agency (made early internet)'
p797
sS'ocd'
p798
S'Obsessive Compulsive Disorder'
p799
sS'dgtwm'
p800
S'dont go there with me'
p801
sS'lubb'
p802
S'Love'
p803
sS'rss'
p804
S'Rich Site Summary'
p805
sS'uninterruptible power supply'
p806
g14
sS'dn'
p807
S'Doing Nothing'
p808
sS'dl'
p809
S'Download'
p810
sS'dm'
p811
S"Don't Mind"
p812
sS'dj'
p813
S'Disc Jockey'
p814
sS'dk'
p815
S"Don't Know"
p816
sS'dh'
p817
S'Darling Husband'
p818
sS'df'
p819
S'Dumbass Frankenstein'
p820
sS'dg'
p821
S'dont go'
p822
sS'dd'
p823
S'Designated Driver'
p824
sS'db'
p825
S'Douche Bag'
p826
sS'dc'
p827
S"Don't Care"
p828
sS'da'
p829
S'dad alert!'
p830
sS'internet friends forever'
p831
g14
sS'epic fail'
p832
S'Total failure'
p833
sS'dw'
p834
S"Don't Worry"
p835
sS'dt'
p836
S'Down Town'
p837
sS'ds'
p838
S'darling son'
p839
sS'dp'
p840
S'Display Picture'
p841
sS'dq'
p842
S'Disqualified'
p843
sS'twss'
p844
S"That's what she said"
p845
sS'bau'
p846
S'Business As Usual'
p847
sS'ema'
p848
S'E-mail Address'
p849
sS'tbfu'
p850
S'Too Bad For You'
p851
sS'emo'
p852
S'Emotional'
p853
sS'vlog'
p854
S'Video Log'
p855
sS'bay'
p856
S'Baby'
p857
sS'for future reference'
p858
g14
sS'ih8u'
p859
S'I Hate You'
p860
sS'bac'
p861
S'Back At Computer'
p862
sS'w/e'
p863
S'Whatever'
p864
sS'australian car'
p865
g14
sS'bam'
p866
S'Below Average Mentality'
p867
sS'bak'
p868
S'Back At Keyboard'
p869
sS'bah'
p870
S'Bored As Hell'
p871
sS'bai'
p872
S'Bye'
p873
sS'w/'
p874
S'With'
p875
sS'wylasomwtc'
p876
S'Would You Like A Saucer Of Milk With That Comment?'
p877
sS'wotam'
p878
S'Waste of Time and Money'
p879
sS'imho'
p880
S'In My Humble Opinion'
p881
sS'nuf'
p882
S'Enough'
p883
sS'cabron'
p884
S'Bastard (Spanish for goat)'
p885
sS'o_o'
p886
S'Confused'
p887
sS'nub'
p888
S'Someone who should know better'
p889
sS'cbf'
p890
S"Can't Be F***ed"
p891
sS'w8'
p892
S'Wait'
p893
sS'r&r'
p894
S'Rest and Relaxation'
p895
sS'incredibly good, awesome'
p896
g14
sS'uryyfm'
p897
S"You Are Too Wise (two y's) For Me"
p898
sS'lotr'
p899
S'Lord of the Rings'
p900
sS'iirc'
p901
S'If I Remember Correctly'
p902
sS'damhikt'
p903
S"Don't Ask Me How I Know That/This"
p904
sS'808'
p905
S'Police code for disturbing the peace'
p906
sS'c2c'
p907
S'Consumer to Consumer'
p908
sS'loti'
p909
S'Laughing On The Inside'
p910
sS'irl'
p911
S'In Real Life'
p912
sS'props'
p913
S'Respect, recognition'
p914
sS'3 wheelin'
p915
S'Driving with one wheel off the ground'
p916
sS'pfft'
p917
S'Expression of dismissal'
p918
sS'muh'
p919
S'Me/My'
p920
sS'wtp'
p921
S"What's The Point?"
p922
sS'omb'
p923
S'On My Break'
p924
sS'we'
p925
S'Whatever'
p926
sS'rotflol'
p927
S'Rolling On The Floor Laughing Out Loud'
p928
sS'omg'
p929
S'Oh My God'
p930
sS'omf'
p931
S'Oh my F***'
p932
sS'wa'
p933
S'Wife Agro'
p934
sS'omd'
p935
S'Oh My Days'
p936
sS'omj'
p937
S'Oh My Jonas (JB)'
p938
sS'wm'
p939
S'Woman Marine'
p940
sS'omo'
p941
S'Odd Man Out'
p942
sS'bredrins'
p943
S'Close friends, brothers'
p944
sS'oml'
p945
S'Oh My Lord'
p946
sS'ww'
p947
S'White Widow (strong marijuana)'
p948
sS'381'
p949
S'I Love You (3 words, 8 letters, 1 meaning)'
p950
sS'fugly'
p951
S'F***ing Ugly'
p952
sS'lawlz'
p953
S'LOL'
p954
sS'omw'
p955
S'On My Way'
p956
sS'wr'
p957
S'Warm Regards'
p958
sS'wtf'
p959
S'What The F***?'
p960
sS'wp'
p961
S'Wrong Person'
p962
sS'wth'
p963
S'What The Hell'
p964
sS'twot'
p965
S'total waste of time'
p966
sS'cop'
p967
S'Officer of the law'
p968
sS'cos'
p969
S'Because'
p970
sS'numpty'
p971
S'Idiot'
p972
sS'boffin'
p973
S'Technical expert'
p974
sS'10-4'
p975
S'Understood, OK'
p976
sS'ill'
p977
S'Cool, tight, etc'
p978
sS'coz'
p979
S'because'
p980
sS'fnx'
p981
S'Thanks'
p982
sS'fne'
p983
S'free and easy'
p984
sS'cob'
p985
S'Close Of Business'
p986
sS'gewd'
p987
S'Good'
p988
sS'fna'
p989
S'For Necessary Action'
p990
sS'pita'
p991
S'Pain In The @$$'
p992
sS'uni'
p993
S'University'
p994
sS'brah'
p995
S'Bro, friend'
p996
sS'col'
p997
S'Crying Out Loud'
p998
sS'ily'
p999
S'I Love You'
p1000
sS'phew'
p1001
S'Expression of relief'
p1002
sS'xd'
p1003
S'lol'
p1004
sS'yaar'
p1005
S'Dude, mate (Hindi)'
p1006
sS'kwl'
p1007
S'Cool'
p1008
sS'm4w'
p1009
S'Man looking for a woman'
p1010
sS'non'
p1011
S'Now Or Never'
p1012
sS'oatus'
p1013
S'On A Totally Unrelated Subject'
p1014
sS'250'
p1015
S'Stupid person (Chinese)'
p1016
sS'tc'
p1017
S'Take Care'
p1018
sS'wula'
p1019
S"What're you Looking At?"
p1020
sS'puta'
p1021
S'Prostitute (Spanish/Portugese)'
p1022
sS'tina'
p1023
S'Crystal Meth'
p1024
sS'ak47'
p1025
S'Assault rifle'
p1026
sS'beez'
p1027
S'Beezy, slut'
p1028
sS'jfgi'
p1029
S'Just F***ing Google It'
p1030
sS'mcl'
p1031
S'Much Clown Love'
p1032
sS'awsm'
p1033
S'Awesome'
p1034
sS'beastly'
p1035
S'Being good at something, cool'
p1036
sS'lifo'
p1037
S'last In First Out'
p1038
sS'not sure'
p1039
g14
sS'anfawfos'
p1040
S'And Now For A Word From Our Sponsor'
p1041
sS'craic'
p1042
S'Good times/gossip/music/drinking (Irish)'
p1043
sS'onyd'
p1044
S"Oh No You Didn't"
p1045
sS'snap'
p1046
S'Expression of dismay, surprise, joy etc'
p1047
sS'dota'
p1048
S'Defence Of The Ancients'
p1049
sS'wdc'
p1050
S"What's Da Craic?"
p1051
sS'tswgaf'
p1052
S'Tell Someone Who Gives A F***'
p1053
sS'obtw'
p1054
S'Oh, By The Way.'
p1055
sS'noyb'
p1056
S'None Of Your Business'
p1057
sS'kotc'
p1058
S'Kiss On The Cheek'
p1059
sS'snafu'
p1060
S'Situation Normal, All Fouled Up'
p1061
sS'gnr'
p1062
S"Guns 'N Roses"
p1063
sS'ihnc'
p1064
S'I have no clue'
p1065
sS'sosdd'
p1066
S'Same Old S**t, Different Day'
p1067
sS'sly'
p1068
S'Still Love You'
p1069
sS'wfm'
p1070
S'Works For Me'
p1071
sS'ihni'
p1072
S'I Have No Idea'
p1073
sS'ait'
p1074
S'Alright'
p1075
sS'slr'
p1076
S'Single Lens Reflex (camera)'
p1077
sS'air'
p1078
S'Blanked, ignored'
p1079
sS'aim'
p1080
S'AOL Instant Messanger'
p1081
sS'ugly'
p1082
g14
sS'dkdc'
p1083
S"Don't Know, Don't Care"
p1084
sS'gnd'
p1085
S'Girl Next Door'
p1086
sS'nowt'
p1087
S'nothing'
p1088
sS'slf'
p1089
S'Sounds Like Fun'
p1090
sS'gno'
p1091
S'Girls/Guys Night Out'
p1092
sS'jfyi'
p1093
S'Just For Your Information'
p1094
sS'aib'
p1095
S'am i boverd?'
p1096
sS'iz'
p1097
S"Is, it's"
p1098
sS'dohc'
p1099
S'Dual Overhead Cam'
p1100
sS'n2m'
p1101
S'Not Too Much'
p1102
sS'wnohgb'
p1103
S'Where No One Has Gone Before'
p1104
sS'iq'
p1105
S'Intelligence Quotient'
p1106
sS'ip'
p1107
S'Internet Protocol'
p1108
sS'it'
p1109
S'Information Technology'
p1110
sS'ilya'
p1111
S'I Love You All'
p1112
sS'ilyb'
p1113
S'I Love You Both'
p1114
sS'ij'
p1115
S"I'm Joking"
p1116
sS'im'
p1117
S'Instant Message'
p1118
sS'cans'
p1119
S'Boobs'
p1120
sS'ilyf'
p1121
S"I'll Love You Forever"
p1122
sS'ilyg'
p1123
S'I Love You Guys/Girls'
p1124
sS'ia'
p1125
S'I Agree'
p1126
sS'ic'
p1127
S'I See'
p1128
sS'ilyk'
p1129
S"I'll Let You Know"
p1130
sS'ilyl'
p1131
S'I love you lots'
p1132
sS'id'
p1133
S'Identity'
p1134
sS'splif'
p1135
S'A cigarette of tobacco and cannibis'
p1136
sS'swalk'
p1137
S'Sealed With A Loving Kiss'
p1138
sS'smg'
p1139
S'Sub-Machine Gun'
p1140
sS'dftba'
p1141
S"Don't Forget To Be Awesome"
p1142
sS'khuf'
p1143
S'Know How You Feel'
p1144
sS'split the cost'
p1145
g14
sS'oem'
p1146
S'original equipment manufacure'
p1147
sS'ccna'
p1148
S'Cisco Certified Network Associate'
p1149
sS'ggnore'
p1150
S'Good Game No Rematch'
p1151
sS'80s'
p1152
S'The Eighties, 1980s'
p1153
sS'dhv'
p1154
S'Demonstration of Higher Value'
p1155
sS'shawty'
p1156
S'Young girl/woman'
p1157
sS'nik'
p1158
S'Now I Know'
p1159
sS'ily2'
p1160
S'I Love You Too'
p1161
sS'ello'
p1162
S'Hello'
p1163
sS'jkz'
p1164
S'Jokes'
p1165
sS'cul8r'
p1166
S'See You Later'
p1167
sS'kis'
p1168
S'Keep It Simple'
p1169
sS'kir'
p1170
S"Keepin' It Real"
p1171
sS'tops'
p1172
S'Wonderful, fantastic'
p1173
sS'kiu'
p1174
S'Keep It Up'
p1175
sS'hand'
p1176
S'Have A Nice Day'
p1177
sS'kik'
p1178
S'A mistyped version of LOL'
p1179
sS'to put down (slag off)'
p1180
g14
sS'jkn'
p1181
S'Joking'
p1182
sS'kio'
p1183
S'Knock it off'
p1184
sS'fidiot'
p1185
S'F***ing Idiot'
p1186
sS'kim'
p1187
S'Keep It Moving'
p1188
sS'wigger'
p1189
S'White person pretending to be black'
p1190
sS'nir'
p1191
S'N00B In Room'
p1192
sS'kia'
p1193
S'Know It All'
p1194
sS'nit'
p1195
S'New In Town'
p1196
sS'aisb'
p1197
S'As I Said before'
p1198
sS'sme'
p1199
S'Small/Medium Enterprises'
p1200
sS'aisi'
p1201
S'As I See it'
p1202
sS'imysm'
p1203
S'I Miss You So Much'
p1204
sS'tho'
p1205
S'Though'
p1206
sS'mia'
p1207
S'Missing In Action'
p1208
sS'jooc'
p1209
S'Just Out Of Curiosity'
p1210
sS'e2eg'
p1211
S'Ear To Ear Grin'
p1212
sS'tha'
p1213
S'The'
p1214
sS'wdf'
p1215
S'What Da F***'
p1216
sS'l8r'
p1217
S'Later'
p1218
sS'yea'
p1219
S'Yeah, yes'
p1220
sS'just for kicks'
p1221
g14
sS'istm'
p1222
S'It Seems To Me'
p1223
sS'bandwidth'
p1224
S'Amount of data through an interface over time'
p1225
sS'ol'
p1226
S'Online'
p1227
sS'yep'
p1228
S'Yes'
p1229
sS'yes'
p1230
g14
sS'yer'
p1231
S'Your'
p1232
sS'hai'
p1233
S'Hey, hi'
p1234
sS'hak'
p1235
S'Hugs And Kisses'
p1236
sS'gosu'
p1237
S'Skillful person (Korean)'
p1238
sS'ele'
p1239
S'Everybody Love Everybody'
p1240
sS'hax'
p1241
S'Hacking, Hackers, hacks'
p1242
sS'hay'
p1243
S'How Are You'
p1244
sS'bni'
p1245
S'Batteries Not Included'
p1246
sS'5n'
p1247
S'Fine'
p1248
sS'yoyo'
p1249
S"You're On Your Own"
p1250
sS'bnb'
p1251
S'Bad News Bears'
p1252
sS'roflol'
p1253
S'Rolling On Floor, Laughing Out Loud'
p1254
sS'glhf'
p1255
S'Good luck, have fun. Used in CS (Counter Strike) matches'
p1256
sS'smdh'
p1257
S'Shaking My Damn Head'
p1258
sS'ops'
p1259
S'Oops'
p1260
sS'rng'
p1261
S'Random Number Generator'
p1262
sS'icbsst'
p1263
S"I can't believe she said that"
p1264
sS'tmrw'
p1265
S'Tomorrow'
p1266
sS'lcb'
p1267
S'Lying Cheating B*stard'
p1268
sS'opb'
p1269
S"Other People's Business"
p1270
sS'opm'
p1271
S"Other People's Money"
p1272
sS'you are sexy'
p1273
g14
sS'opk'
p1274
S"Other People's Kids"
p1275
sS'skanky'
p1276
S'Slutty, cheap'
p1277
sS'tv teen drama'
p1278
g14
sS'ditto'
p1279
S'The same, me too, I agree'
p1280
sS'seasonal adjustment disorder'
p1281
g14
sS'=x'
p1282
S'No Comment'
p1283
sS'50'
p1284
S'Police (from Hawaii Five-O)'
p1285
sS'any1'
p1286
S'anyone'
p1287
sS'n2mu'
p1288
S'Nice To Meet You'
p1289
sS'nimby'
p1290
S'Not In My Back Yard'
p1291
sS'www'
p1292
S'World Wide Web'
p1293
sS'acab'
p1294
S'All Cops Are B*****ds'
p1295
sS'amog'
p1296
S'Alpha Male Of Group'
p1297
sS'idgac'
p1298
S"I Don't Give A Crap"
p1299
sS'idgad'
p1300
S"I Don't Give A Damn."
p1301
sS'idgaf'
p1302
S"I Don't Give A F***"
p1303
sS'mileage'
p1304
S'Value for money'
p1305
sS"don't push it"
p1306
g14
sS'young available bachelor'
p1307
g14
sS'regarding your note'
p1308
g14
sS'idgas'
p1309
S"I Don't Give A S**t"
p1310
sS'vato'
p1311
S'Dude (Mexican)'
p1312
sS'finna'
p1313
S'Going To'
p1314
sS'sotd'
p1315
S'Song Of The Day'
p1316
sS'txt'
p1317
S'SMS message'
p1318
sS'wayta'
p1319
S'What Are You Talking About'
p1320
sS'sota'
p1321
S'State Of The Art'
p1322
sS'icb'
p1323
S"I Can't Believe..."
p1324
sS'zomg'
p1325
S'Same as OMG'
p1326
sS'basic military training'
p1327
g14
sS'fof'
p1328
S'Full of Fail'
p1329
sS'foa'
p1330
S'First Of All'
p1331
sS'fob'
p1332
S'Fresh Off the Boat'
p1333
sS'foc'
p1334
S'Free Of Charge'
p1335
sS'cnn'
p1336
S'Cable News Network'
p1337
sS'ilylt'
p1338
S'I Love You Long Time'
p1339
sS'icq'
p1340
S'I Seek You (Instant Messaging Program)'
p1341
sS'foo'
p1342
S'Fool'
p1343
sS'gow'
p1344
S'Gears of War (Game)'
p1345
sS'foi'
p1346
S'Freedom Of Information'
p1347
sS'grule'
p1348
S'Hard work, nuisance'
p1349
sS'with much pleasure'
p1350
g14
sS'plz'
p1351
S'Please'
p1352
sS'hsm'
p1353
S'High School Musical'
p1354
sS'hsp'
p1355
S'Highly Sensitive Person'
p1356
sS'hsv'
p1357
S'Herpes Simplex Virus'
p1358
sS'sifs'
p1359
S'Secret Internet Fatties'
p1360
sS'tasty'
p1361
S'Good looking'
p1362
sS'obo'
p1363
S'Or Best Offer'
p1364
sS'hyna'
p1365
S'Good looking girl (Hispanic)'
p1366
sS'zut'
p1367
S'Damn it (French)'
p1368
sS'obe'
p1369
S'Overcome By Events'
p1370
sS'cyl8r'
p1371
S'see ya later'
p1372
sS'anime'
p1373
S'Japanese style animation'
p1374
sS'obv'
p1375
S'Obviously'
p1376
sS'big fat positive ie pregnant'
p1377
g14
sS'obs'
p1378
S'Obviously'
p1379
sS'mbn'
p1380
S'Must Be Nice'
p1381
sS'mbo'
p1382
S'Must Be Off'
p1383
sS'roflmbo'
p1384
S'Rolling On the Floor Laughing My Butt Off'
p1385
sS'sod'
p1386
S'Fool, idiot'
p1387
sS'sog'
p1388
S'Sea Of Green (cannabis growing)'
p1389
sS'sof'
p1390
S'Soldier Of Fortune (Game)'
p1391
sS'mbf'
p1392
S'My Best Friend'
p1393
sS'mba'
p1394
S'Masters of Business Association'
p1395
sS'ppm'
p1396
S'Parts Per Million'
p1397
sS'ppl'
p1398
S'People'
p1399
sS'm2af'
p1400
S'Message To All Friends'
p1401
sS'sos'
p1402
S'Save Our Souls (Help!)'
p1403
sS'lewl'
p1404
S'LOL'
p1405
sS'ppv'
p1406
S'Pay Per View'
p1407
sS'ppu'
p1408
S'Please Pick Up'
p1409
sS'ppt'
p1410
S'Microsoft PowerPoint file'
p1411
sS'cuol'
p1412
S'See You On Line'
p1413
sS'soz'
p1414
S'Sorry'
p1415
sS'<333'
p1416
S'Multiple hearts'
p1417
sS'wan'
p1418
S'What A Newb'
p1419
sS'git'
p1420
S'Idiot'
p1421
sS'somsw'
p1422
S'someone over my shoulder watching'
p1423
sS'omdb'
p1424
S'Over My Dead Body'
p1425
sS'frill'
p1426
S'For Real'
p1427
sS'wab'
p1428
S'What A B******'
p1429
sS'cwot'
p1430
S'Complete Waste Of Time'
p1431
sS'ganja'
p1432
S'Marijuana, pot, cannabis, weed'
p1433
sS'gif'
p1434
S'Graphics Interchange Format - Picture Format'
p1435
sS'omdz'
p1436
S'Oh My Dayz'
p1437
sS'selling drugs'
p1438
g14
sS'way'
p1439
S'Where Are You?'
p1440
sS'so the f*** what'
p1441
g14
sS'waw'
p1442
S'What A W***er'
p1443
sS'lagg'
p1444
S'Defeat, PWN'
p1445
sS'tnx'
p1446
S'Thanks'
p1447
sS'happy'
p1448
g14
sS'lawl'
p1449
S'LOL'
p1450
sS'just curious'
p1451
g14
sS'typo'
p1452
S'A typing mistake'
p1453
sS'gstq'
p1454
S'God Save The Queen'
p1455
sS'waefrd'
p1456
S'When All Else Fails, Read Directions'
p1457
sS'phwoar'
p1458
S'Acknowledgement that a person is fit, sexy,hot'
p1459
sS'bmth'
p1460
S'Bring Me The Horizon (Band)'
p1461
sS'note to self'
p1462
g14
sS'iswydt'
p1463
S'I See What You Did There'
p1464
sS'220'
p1465
S'Second To None'
p1466
sS'big f***ing gun'
p1467
g14
sS'aybrb2u'
p1468
S'All your base are belong to us'
p1469
sS'azn'
p1470
S'Asian'
p1471
sS'physical training'
p1472
g14
sS'url'
p1473
S'Uniform Resource Locator, internet address'
p1474
sS'mth'
p1475
S'Month'
p1476
sS'wylscwtw'
p1477
S'Would You Like Some Cheese With That Whine?'
p1478
sS'mtc'
p1479
S'More To Come'
p1480
sS'mta'
p1481
S'more than anything'
p1482
sS'mtf'
p1483
S'Male To Female'
p1484
sS'mte'
p1485
S'My Thoughts Exactly'
p1486
sS'kwim'
p1487
S'Know What I Mean?'
p1488
sS'vwp'
p1489
S'Very Well Played'
p1490
sS't2ul'
p1491
S'Talk To You Later'
p1492
sS'face'
p1493
g14
sS'nh'
p1494
S'Nice hand (poker slang)'
p1495
sS'leet'
p1496
S'Elite'
p1497
sS'nk'
p1498
S'No Kidding'
p1499
sS'nm'
p1500
S'Nothing Much'
p1501
sS'lylas'
p1502
S'Love You Like A Sister'
p1503
sS'no'
p1504
S'Misspelling of know'
p1505
sS'ngl'
p1506
S'Not Gonna Lie'
p1507
sS'na'
p1508
S'Not Available'
p1509
sS'nb'
p1510
S'Not Bad'
p1511
sS'nc'
p1512
S'No Choice'
p1513
sS'nd'
p1514
S'And'
p1515
sS'ne'
p1516
S'any'
p1517
sS'ng'
p1518
S'No Good'
p1519
sS'ny'
p1520
S'New York'
p1521
sS'lylaf'
p1522
S'Love You Like A Friend'
p1523
sS'lylab'
p1524
S'Love You Like A Brother'
p1525
sS'np'
p1526
S'No Problem'
p1527
sS'tie'
p1528
S'Take It Easy'
p1529
sS'nr'
p1530
S'No Reply'
p1531
sS'ns'
p1532
S'Nice Shot'
p1533
sS'nt'
p1534
S'No Thanks'
p1535
sS'tia'
p1536
S'Thanks In Advance'
p1537
sS'nw'
p1538
S'No Way'
p1539
sS'geezer'
p1540
S'A guy, a bloke, a person'
p1541
sS'san jose'
p1542
g14
sS'o:)'
p1543
S'Innocent, angelic'
p1544
sS'fwtd'
p1545
S'Fate Worse Than Death'
p1546
sS'taw'
p1547
S'teachers are watching'
p1548
sS'ooak'
p1549
S'One Of A Kind'
p1550
sS'babysitting'
p1551
S'Holding the weed too long'
p1552
sS'aslp'
p1553
S'Age, Sex, Location, Picture?'
p1554
sS'iyss'
p1555
S'If You Say So'
p1556
sS'fsm'
p1557
S'Female Seeking Male'
p1558
sS'make out'
p1559
g14
sS'n8'
p1560
S'Night'
p1561
sS'time'
p1562
S'Tears In My Eyes'
p1563
sS'mfeo'
p1564
S'made for each other'
p1565
sS'bmfl'
p1566
S'Best Mates For Life'
p1567
sS'ul'
p1568
S'Upload'
p1569
sS':/'
p1570
S'Sarcasm'
p1571
sS':('
p1572
S'Unhappy, sad'
p1573
sS':)'
p1574
S'Happy'
p1575
sS':*'
p1576
S'Kiss'
p1577
sS'honest to god'
p1578
g14
sS'lls'
p1579
S'Laughing Like S**t'
p1580
sS'rof'
p1581
S'Rate Of Fire'
p1582
sS'rog'
p1583
S'Really Old Git'
p1584
sS'milf'
p1585
S"Mother I'd Like to F***"
p1586
sS'gafia'
p1587
S'Get Away From It All'
p1588
sS':?'
p1589
S'Confused'
p1590
sS'osm'
p1591
S'Awesome'
p1592
sS':9'
p1593
S'Yum, licking'
p1594
sS'town portal (diablo 2)'
p1595
g14
sS'vpl'
p1596
S'Vislible Panty Line'
p1597
sS'llf'
p1598
S'Laughing Like F***'
p1599
sS':3'
p1600
S'Cute/goofy face'
p1601
sS'yvw'
p1602
S"You're Very Welcome"
p1603
sS'three days grace (band)'
p1604
g14
sS'ttbomk'
p1605
S'To The Best Of My Knowledge'
p1606
sS'besty'
p1607
S'Best Friend'
p1608
sS'pls'
p1609
S'Please'
p1610
sS'dhyb'
p1611
S"Don't Hold Your Breath"
p1612
sS':l'
p1613
S'Laughing'
p1614
sS':o'
p1615
S'Surprised'
p1616
sS'jerk'
p1617
S'Idiot'
p1618
sS':d'
p1619
S'Happy'
p1620
sS':c'
p1621
S'Very Sad'
p1622
sS':|'
p1623
S'Disgust, disapproval, not funny'
p1624
sS'trotw'
p1625
S'the rest of the world'
p1626
sS':x'
p1627
S'Zipped lips'
p1628
sS'420'
p1629
S'Weed, Pot'
p1630
sS'ma'
p1631
S'mom alert!'
p1632
sS'blast'
p1633
S'Damn'
p1634
sS':p'
p1635
S'Sticking tongue out'
p1636
sS'fon'
p1637
S'Freak Of Nature'
p1638
sS':s'
p1639
S'Confused'
p1640
sS'dil'
p1641
S'Daughter-In-Law'
p1642
sS'jhc'
p1643
S'Jesus H Christ'
p1644
sS'mma'
p1645
S'Meet Me At...'
p1646
sS'gud'
p1647
S'Good'
p1648
sS'bicbw'
p1649
S'But I Could Be Wrong'
p1650
sS':@'
p1651
S'Angry'
p1652
sS'suprised'
p1653
g14
sS'dic'
p1654
S'Do I Care?'
p1655
sS'fftl'
p1656
S'From First To Last (band)'
p1657
sS'diy'
p1658
S'Do It Yourself'
p1659
sS'dis'
p1660
S'Did I Say'
p1661
sS'htf'
p1662
S'How The F***?'
p1663
sS'htc'
p1664
S'Hit The Cell'
p1665
sS'htb'
p1666
S'Hate The Bitch!'
p1667
sS'pms'
p1668
S'Pre-Menstrual Syndrome'
p1669
sS'dealing'
p1670
S'Acting like boyfriend/girlfriend'
p1671
sS'hth'
p1672
S'Hope That Helps'
p1673
sS's/b'
p1674
S'Should Be'
p1675
sS'pml'
p1676
S'Pissing Myself Laughing'
p1677
sS'nyob'
p1678
S'Not Your Own Business'
p1679
sS'pedo'
p1680
S'Paedophile'
p1681
sS'pmo'
p1682
S'P*** Me Off'
p1683
sS'ruo'
p1684
S'Weak (Chinese)'
p1685
sS'intelligent dance music'
p1686
g14
sS'tire (out)'
p1687
g14
sS'mt'
p1688
S'Mistell (Gaming)'
p1689
sS'pmymhmmfswgad'
p1690
S'Pardon Me, You Must Have Mistaken Me For Someone Who Gives A Damn'
p1691
sS'giwist'
p1692
S"Gee, I Wish I'd Said That."
p1693
sS'520'
p1694
S'I Love You (Chinese)'
p1695
sS'nifoc'
p1696
S'Naked In Front Of Computer'
p1697
sS'thinking of laughing'
p1698
g14
sS'ydl'
p1699
S'Yellow Dog Linux'
p1700
sS'rua'
p1701
S'Are You Alone?'
p1702
sS'ydk'
p1703
S"You Don't Know"
p1704
sS'ydi'
p1705
S'You Deserve It'
p1706
sS'french'
p1707
S'Kiss using tongues'
p1708
sS'gtfafm'
p1709
S'Get The F*** Away From Me'
p1710
sS'orly'
p1711
S'Oh Really'
p1712
sS'wuu2'
p1713
S'What are you up to?'
p1714
sS'plx'
p1715
S'Please'
p1716
sS'buck'
p1717
S'Fight'
p1718
sS'hbn'
p1719
S'How About Now'
p1720
sS'g2r'
p1721
S'Got To Run'
p1722
sS'cuckoo'
p1723
S'Mad, bonkers, crazy'
p1724
sS'brgds'
p1725
S'Best Regards'
p1726
sS'fsho'
p1727
S'For Sure'
p1728
sS'bos'
p1729
S'Boyfriend Over Shoulder'
p1730
sS'bot'
p1731
S'Back On Topic'
p1732
sS'g2g'
p1733
S'Gotta go'
p1734
sS'g2e'
p1735
S'Got To Eat'
p1736
sS'bol'
p1737
S'best of luck'
p1738
sS'boo'
p1739
S'Boyfriend/Girlfriend'
p1740
sS'hbu'
p1741
S'How About You?'
p1742
sS'kthxbai'
p1743
S'OK, Thanks, Bye'
p1744
sS'bob'
p1745
S'Battery Operated Boyfriend (vibrator)'
p1746
sS'iwik'
p1747
S'I Wish I Knew'
p1748
sS'bof'
p1749
S'Whatever'
p1750
sS'fbw'
p1751
S'Fly by wire'
p1752
sS'not a chain (letter)'
p1753
g14
sS'ipn'
p1754
S'Instant Payment Notification (PayPal)'
p1755
sS'ipo'
p1756
S'Initial Public Offering'
p1757
sS'rfyl'
p1758
S'Run For Your Life'
p1759
sS'police officer'
p1760
g14
sS'fbi'
p1761
S'Federal Bureau of Investigation'
p1762
sS'fbm'
p1763
S'Fine By Me'
p1764
sS'ayl'
p1765
S'Are You Listening?'
p1766
sS'ayo'
p1767
S'Hey, You'
p1768
sS'aye'
p1769
S'Yes'
p1770
sS'>:)'
p1771
S'Evil Grin'
p1772
sS'>:('
p1773
S'Angry'
p1774
sS'dude'
p1775
S'A name for anyone (esp surfers, skaters)'
p1776
sS'msr'
p1777
S'Mulder/Scully Romance'
p1778
sS'ayb'
p1779
S'All your base'
p1780
sS'iituwutmas'
p1781
S'if i tell u will u tell me a secret?'
p1782
sS'msn'
p1783
S'Microsoft Network'
p1784
sS'msm'
p1785
S'Mainstream Media'
p1786
sS'atwa'
p1787
S'Air, Trees, Water, Animals'
p1788
sS'tnbm'
p1789
S'True Norwegian Black Metal'
p1790
sS'msi'
p1791
S'Mindless Self Indulgence (band)'
p1792
sS'c4c'
p1793
S'Comment for Comment'
p1794
sS'msg'
p1795
S'Message'
p1796
sS'ayt'
p1797
S'Are You There?'
p1798
sS'mgby'
p1799
S'May God Bless You'
p1800
sS'pmpl'
p1801
S'P**ing My Pants Laughing'
p1802
sS'ays'
p1803
S'Are You Serious?'
p1804
sS'oof'
p1805
S'Out Of Office'
p1806
sS'rn'
p1807
S'Right Now'
p1808
sS'ooc'
p1809
S'Out Of Control/Character/Context'
p1810
sS'oom'
p1811
S'Out of Mana (MMORPG)'
p1812
sS'lq'
p1813
S'Liquor'
p1814
sS'ooo'
p1815
S'Out Of Office'
p1816
sS'zup'
p1817
S"What's up?"
p1818
sS'ntmy'
p1819
S'Nice To Meet You'
p1820
sS'haxor'
p1821
S'Hacker'
p1822
sS'oos'
p1823
S'Out Of Style'
p1824
sS'omsj'
p1825
S'Oh My Sweet Jesus!'
p1826
sS'affa'
p1827
S'Angels Forever, Forever Angels'
p1828
sS'see subject line'
p1829
g14
sS'ctfu'
p1830
S'Cracking The F*** Up'
p1831
sS'ibm'
p1832
S'International Business Machines'
p1833
sS'adult video'
p1834
g14
sS'>:o'
p1835
S'Angry'
p1836
sS'ddmmyy'
p1837
S'Day Month Year'
p1838
sS'nefin'
p1839
S'Anything'
p1840
sS'focl'
p1841
S'Falling Off Chair Laughing'
p1842
sS'can'
p1843
S'Bathroom'
p1844
sS'ctfo'
p1845
S'Chill The F*** Out'
p1846
sS'afaiac'
p1847
S'As Far As I Am Concerned'
p1848
sS'iflu'
p1849
S'I F***ing Love You'
p1850
sS'crazy'
p1851
g14
sS'wylaboctgwtr'
p1852
S'Would You Like A Bowl Of Cream To Go With That Remark?'
p1853
sS'bgl'
p1854
S'Big Game License, likes fat people'
p1855
sS'awesome'
p1856
S'Amazing, wonderful, cool'
p1857
sS'sdfu'
p1858
S'Shut Da F*** Up'
p1859
sS'crudely drawn cock'
p1860
g14
sS'roftl'
p1861
S'Misspelling of ROTFL'
p1862
sS'ayfkm'
p1863
S'Are You F***ing Kidding Me?'
p1864
sS'spm'
p1865
S'South Park Mexican (rapper)'
p1866
sS'nnito'
p1867
S'Not Necessarily In That Order'
p1868
sS'spf'
p1869
S'Strictly Platonic Friend'
p1870
sS'ligaf'
p1871
S'Like I Give A F***'
p1872
sS'living the good life'
p1873
g14
sS'lulas'
p1874
S'Love You Like A Sister'
p1875
sS'woopie'
p1876
S'Well Off Older Person'
p1877
sS'wife over shoulder'
p1878
g14
sS's2'
p1879
S'Love (heart shape)'
p1880
sS'crimbo'
p1881
S'Christmas'
p1882
sS'swmbo'
p1883
S'She Who Must Be Obeyed'
p1884
sS'write'
p1885
g14
sS"i'm posting naked"
p1886
g14
sS'fps'
p1887
S'First-Person Shooter (video game term)'
p1888
sS'nyc'
p1889
S'New York City'
p1890
sS'pebkac'
p1891
S'Problem Exists Between Keyboard And Chair'
p1892
sS'mtlbwy'
p1893
S'May The Lord Be With You'
p1894
sS'environmentally beneficial'
p1895
g14
sS'aoe'
p1896
S'Area Of Effect'
p1897
sS'daty'
p1898
S'Dining At The Y, oral sex'
p1899
sS'aob'
p1900
S'Any Other Business'
p1901
sS'obvs'
p1902
S'Obviously'
p1903
sS'aon'
p1904
S'All Or Nothing'
p1905
sS'sp2'
p1906
S'Serive Pack 2'
p1907
sS'aol'
p1908
S'American Online'
p1909
sS'c&c'
p1910
S'Command and Conquer (game)'
p1911
sS'owtte'
p1912
S'Or Words To That Effect'
p1913
sS'hmpf'
p1914
S'Sound made when irritated'
p1915
sS'ykwis'
p1916
S"You Know What I'm Saying?"
p1917
sS'str8'
p1918
S'Straight'
p1919
sS'snr'
p1920
S'Signal To Noise Ratio'
p1921
sS'2l8'
p1922
S'Too late'
p1923
sS'mag'
p1924
S'Magazine'
p1925
sS'mah'
p1926
S'My'
p1927
sS'sa te fut (f*** you romanian)'
p1928
g14
sS'c&p'
p1929
S'Copy & Paste'
p1930
sS'sy'
p1931
S'Sincerely Yours'
p1932
sS'joint'
p1933
S'Rolled marijuana cigarette'
p1934
sS'ss'
p1935
S'Screen Shot'
p1936
sS'sp'
p1937
S'Spelling'
p1938
sS'lafs'
p1939
S'Love At First Sight'
p1940
sS'su'
p1941
S'Shut Up'
p1942
sS'st'
p1943
S'Something'
p1944
sS'ghd'
p1945
S'Good Hair Day'
p1946
sS'sj'
p1947
S'Society of Jesus'
p1948
sS'si'
p1949
S'Stop It'
p1950
sS'sh'
p1951
S'Same Here'
p1952
sS'jail'
p1953
g14
sS'sn'
p1954
S'Screen Name'
p1955
sS'sm'
p1956
S'Sado Masochism'
p1957
sS'sl'
p1958
S'So Lame'
p1959
sS'sc'
p1960
S'StarCraft (game)'
p1961
sS'sb'
p1962
S'Somebody'
p1963
sS'sa'
p1964
S'sibling alert'
p1965
sS'nout'
p1966
S'Nothing (northern UK)'
p1967
sS'sd'
p1968
S'Sweet Dreams'
p1969
sS'cute'
p1970
S'Someone/thing that is attrative in an innocent way'
p1971
sS'tty'
p1972
S'Talk To You'
p1973
sS'lse'
p1974
S'London School of Economics'
p1975
sS'general swear word, like f***'
p1976
g14
sS'ttp'
p1977
S'To The Point'
p1978
sS'pay to play'
p1979
g14
sS'lsh'
p1980
S'laughing so hard'
p1981
sS'what a waste'
p1982
g14
sS'carriage return'
p1983
g14
sS'lsr'
p1984
S'loser'
p1985
sS'lss'
p1986
S'Last Song Syndrome'
p1987
sS'ttm'
p1988
S'Talk To Me'
p1989
sS'dillic'
p1990
S'Does It Look Like I Care'
p1991
sS'ttc'
p1992
S'trying to conceive'
p1993
sS'klutz'
p1994
S'Clumsy or stupid person'
p1995
sS'ttg'
p1996
S'Time To Go'
p1997
sS'no1'
p1998
S'No-one'
p1999
sS'ttd'
p2000
S'Textually Transmitted Disease'
p2001
sS'gta'
p2002
S'Grand Theft Auto'
p2003
sS'swank'
p2004
S'Cool, classy'
p2005
sS'dmiid'
p2006
S"Don't Mind If I Do"
p2007
sS'jic'
p2008
S'Just In Case'
p2009
sS'gtg'
p2010
S'Got To Go'
p2011
sS'gth'
p2012
S'go to hell'
p2013
sS'ssa'
p2014
S'Subject Says All'
p2015
sS'gtk'
p2016
S'Good To Know'
p2017
sS'nin'
p2018
S'Nine Inch Nails'
p2019
sS'gtm'
p2020
S'Giggling To Myself'
p2021
sS'te amo'
p2022
S'I love You (Spanish)'
p2023
sS'gtp'
p2024
S'Got To Pee'
p2025
sS'gtr'
p2026
S'Got To Run'
p2027
sS'gts'
p2028
S'Good Times'
p2029
sS'gtw'
p2030
S'got to work'
p2031
sS'sok'
p2032
S"That's OK"
p2033
sS'dmta'
p2034
S'Dirty Minds Think Alike'
p2035
sS'nom'
p2036
S'No Offence Meant'
p2037
sS'elns'
p2038
S'Eller noe s\xc3\xa5nt (or something like that - Norwegian)'
p2039
sS'kkz'
p2040
S'Okay'
p2041
sS'noc'
p2042
S'No One Cares'
p2043
sS'srsly'
p2044
S'Seriously'
p2045
sS'yes (japanese)'
p2046
g14
sS'soo'
p2047
S'so'
p2048
sS'iwkuwiw2'
p2049
S'i will kiss you wen i want to'
p2050
sS'nop'
p2051
S'Not Our Problem'
p2052
sS'mlia'
p2053
S'My Life Is Average'
p2054
sS'nos'
p2055
S'New Old Stock'
p2056
sS'sop'
p2057
S'Standard Operating Procedure'
p2058
sS'lqty'
p2059
S'Laughing Quietly To Yourself'
p2060
sS'rtfm'
p2061
S'Read The Flipping Manual'
p2062
sS'em'
p2063
S'E-Mail'
p2064
sS'sow'
p2065
S'Female police officer'
p2066
sS'eg'
p2067
S'Evil Grin'
p2068
sS'eb'
p2069
S'eyeball'
p2070
sS'goose'
p2071
S"Grab someone's bottom"
p2072
sS'wwjbd'
p2073
S'What Would Jason Bourne Do?'
p2074
sS'ez'
p2075
S'Easy'
p2076
sS'gtfo'
p2077
S'Get The F*** Out'
p2078
sS'ep'
p2079
S'Extended Play'
p2080
sS'wybmv'
p2081
S'Will You Be My Valentine?'
p2082
sS'fu'
p2083
S'F*** You'
p2084
sS'troll'
p2085
S'A deliberately provocative message board user'
p2086
sS'wiuwy'
p2087
S'What Is Up With You?'
p2088
sS'bruva'
p2089
S'Brother'
p2090
sS'blt'
p2091
S'Bacon, Lettuce and Tomato sandwich'
p2092
sS'ignb'
p2093
S"I'm Going Now, Bye"
p2094
sS'awhfy'
p2095
S'Are We Having Fun Yet'
p2096
sS'dilligaf'
p2097
S'Do I Look Like I Give A F***?'
p2098
sS'dilligad'
p2099
S'Do I Look Like I Give A Darn?'
p2100
sS'dutch'
p2101
S'Joint'
p2102
sS'bbiam'
p2103
S'Be Back In A Minute'
p2104
sS'smfh'
p2105
S'Shaking My F***ing Head'
p2106
sS'lag'
p2107
S'Slow response (computer, internet)'
p2108
sS'imnsho'
p2109
S'In My Not So Humble Opinion'
p2110
sS'sloshed'
p2111
S'Drunk'
p2112
sS'lmk'
p2113
S'Let Me Know'
p2114
sS'lml'
p2115
S'Love My Life'
p2116
sS'pleb'
p2117
S'Commoner, inferior person'
p2118
sS'lmo'
p2119
S'Leave Me Alone'
p2120
sS'lma'
p2121
S'Leave Me Alone'
p2122
sS'lmf'
p2123
S'Little/Lazy Mother F***ker'
p2124
sS'ilu2'
p2125
S'I love you too'
p2126
sS'gafm'
p2127
S'Get Away From Me'
p2128
sS'dunno'
p2129
S"Don't Know"
p2130
sS'headphones'
p2131
g14
sS'zomb'
p2132
S'Zombie'
p2133
sS'dpyn'
p2134
S"Don't Pick Your Nose"
p2135
sS'kyfc'
p2136
S'Keep Your Fingers Crossed'
p2137
sS'jww'
p2138
S'Just Was Wondering'
p2139
sS'tanstaafl'
p2140
S"There Ain't No Such Thing as a Free Lunch"
p2141
sS'lbrs'
p2142
S'Lower Blackrock Spire (WoW)'
p2143
sS'gr&d'
p2144
S'Grinning, Running & Ducking'
p2145
sS'vbl'
p2146
S'Visible Bra Line'
p2147
sS'iawtc'
p2148
S'I Agree With That/This Comment'
p2149
sS'eeprom'
p2150
S'Erasable EPROM'
p2151
sS'jwg'
p2152
S'Just a Wild Guess'
p2153
sS'bling'
p2154
S'Flashy Jewelry'
p2155
sS'degt'
p2156
S"Don't Even Go There (i.e. I don't want to talk about it)"
p2157
sS'ono'
p2158
S'or nearest offer'
p2159
sS'tddup'
p2160
S'Til Death Do Us Part'
p2161
sS'wtgp'
p2162
S'Way To Go, Partner'
p2163
sS'xoxo'
p2164
S'Hugs & Kisses'
p2165
sS'flipping'
p2166
S'Mild version of F***ing'
p2167
sS'crib'
p2168
S'House, residence'
p2169
sS'opec'
p2170
S'Organization of the Petroleum Exporting Countries'
p2171
sS'rino'
p2172
S'Republican In Name Only'
p2173
sS'imya'
p2174
S'I miss You Already'
p2175
sS'iitywtmwybmad'
p2176
S'If I Tell You What This Means Will You Buy Me a Drink?'
p2177
sS'ons'
p2178
S'One Night Stand'
p2179
sS'xp'
p2180
S'Windows operating system'
p2181
sS'drove'
p2182
S'Mad, angry'
p2183
sS'cheesy'
p2184
S'Corny, lame'
p2185
sS'f***ing awesome'
p2186
g14
sS'ial'
p2187
S"I Ain't Laughing"
p2188
sS'iae'
p2189
S'In Any Event'
p2190
sS'fobr'
p2191
S'Fall Out Boy Rock (website)'
p2192
sS'iac'
p2193
S'In Any Case'
p2194
sS'plastic'
p2195
S'Credit Card'
p2196
sS'fml'
p2197
S'F*** My Life'
p2198
sS'2'
p2199
S'To'
p2200
sS'l4d'
p2201
S'Left 4 Dead (game)'
p2202
sS'tinwis'
p2203
S'That Is Not What I Said'
p2204
sS'ias'
p2205
S'In A Second'
p2206
sS'fma'
p2207
S'Full Metal Alchemist'
p2208
sS'hud'
p2209
S'Heads-Up Display'
p2210
sS'ttly'
p2211
S'Totally'
p2212
sS'wuwtb'
p2213
S"What You Wanna Talk 'Bout?"
p2214
sS'wuwta'
p2215
S'What You Wanna Talk About?'
p2216
sS'88888888'
p2217
S'clapping'
p2218
sS'pnp'
p2219
S'Party and Play'
p2220
sS'hun'
p2221
S'Honey'
p2222
sS'wax'
p2223
S'without any experience'
p2224
sS'huh'
p2225
S'Confused sound'
p2226
sS'on9'
p2227
S'Stupid (Chinese)'
p2228
sS'11'
p2229
S'One louder than 10'
p2230
sS'wat'
p2231
S'What'
p2232
sS'lmao'
p2233
S'Laughing My @$$ Off'
p2234
sS'tbh'
p2235
S'To be honest'
p2236
sS'was'
p2237
S'Wait And See'
p2238
sS'gotta'
p2239
S'Got to ...'
p2240
sS'p911'
p2241
S'Parent Alert'
p2242
sS'r'
p2243
S'are'
p2244
sS'low self-esteem'
p2245
g14
sS'lmap'
p2246
S'Leave Me Alone Please'
p2247
sS'lhm'
p2248
S'Lord Have Mercy'
p2249
sS'gfete'
p2250
S'Grinning From Ear To Ear'
p2251
sS'awnp'
p2252
S'All Work, No Play'
p2253
sS'guitar acquisition syndrome'
p2254
g14
sS'tmi'
p2255
S'Too Much Information'
p2256
sS'marijuana'
p2257
g14
sS'slap'
p2258
S'sounds like a plan'
p2259
sS'sad'
p2260
S'Pathetic'
p2261
sS'identification: friend or foe'
p2262
g14
sS'prw'
p2263
S'Parents Are Watching'
p2264
sS'sas'
p2265
S'Special Air Service'
p2266
sS'slag'
p2267
S'A promiscuous woman'
p2268
sS'sula'
p2269
S'Sweaty Upper Lip Alert'
p2270
sS'dasf'
p2271
S'Drunk As F***'
p2272
sS'sat'
p2273
S'Scholastic Assessment Test'
p2274
sS'registered nurse'
p2275
g14
sS'imoo'
p2276
S'In My Own Opinion'
p2277
sS'ymca'
p2278
S'Young Mens Christian Association'
p2279
sS'ooft'
p2280
S'Sound made when impressed by something'
p2281
sS'omfg'
p2282
S'Oh My F****ing Gosh'
p2283
sS'wcd'
p2284
S'What Chu Doing?'
p2285
sS'online'
p2286
g14
sS'q&a'
p2287
S'Question and Answer'
p2288
sS'tccic'
p2289
S'Take Care Cause I Care'
p2290
sS'fops'
p2291
S'Fake cops (security guards etc)'
p2292
sS'iwm'
p2293
S"It Wasn't Me"
p2294
sS'urgh'
p2295
S'Expression of annoyance, displeasure'
p2296
sS'jajajaja'
p2297
S'Spanish for hahahaha'
p2298
sS'beta'
p2299
S'Pre-release version'
p2300
sS'831'
p2301
S'I Love You (8 letters, 3 words, 1 meaning)'
p2302
sS'net'
p2303
S'Internet'
p2304
sS'k3u'
p2305
S'I Love You (I <3 U)'
p2306
sS'lawd'
p2307
S'Lord'
p2308
sS'mrp'
p2309
S"Manufacturer's Recommended Price"
p2310
sS'idiot, nitwit'
p2311
g14
sS'touche'
p2312
S'Said when admitting opponent has made a good point'
p2313
sS'qos'
p2314
S'Quantam Of Solace'
p2315
sS'nlt'
p2316
S'No later than...'
p2317
sS'a7x'
p2318
S'Avenged Sevenfold (band)'
p2319
sS'tko'
p2320
S'Technical Knock Out'
p2321
sS'ltns'
p2322
S'Long Time No See'
p2323
sS'1aat'
p2324
S'One At A Time'
p2325
sS'hack'
p2326
S'Break into computer systems or software'
p2327
sS'nli'
p2328
S'Not Logged In'
p2329
sS'a7a'
p2330
S'Frusration, anger (Arabic)'
p2331
sS'aint'
p2332
S'Am not/are not/is not'
p2333
sS'woot'
p2334
S'Hurrah (Wow, Loot!) or Want one of those'
p2335
sS'rmv'
p2336
S'Results May Vary'
p2337
sS'woop'
p2338
S'WOOT'
p2339
sS'intellectual property'
p2340
g14
sS'moh'
p2341
S'My Other Half'
p2342
sS'non-repairable item'
p2343
g14
sS'b4u'
p2344
S'Before you'
p2345
sS'fubb'
p2346
S'Fouled Up Beyond Belief'
p2347
sS'4ever'
p2348
S'forever'
p2349
sS'ifly'
p2350
S'I F***ing Love You'
p2351
sS'lord help me'
p2352
g14
sS'bareback'
p2353
S'Unprotected Sex'
p2354
sS'fubu'
p2355
S'Fouled Up Beyond Use'
p2356
sS'jpeg'
p2357
S'Joint Photographic Experts Group'
p2358
sS'dyj'
p2359
S'do your job'
p2360
sS'dyk'
p2361
S'Did You Know'
p2362
sS'b4n'
p2363
S'Bye For Now'
p2364
sS'not applicable'
p2365
g14
sS'gen'
p2366
S'Information'
p2367
sS'dyb'
p2368
S'Do Your Best'
p2369
sS'blnt'
p2370
S'Better Luck Next Time'
p2371
sS'pimp'
p2372
S"Prostitute's manager"
p2373
sS'pmfji'
p2374
S'Pardon Me For Jumping In'
p2375
sS'bisou'
p2376
S'Kiss (French)'
p2377
sS":'("
p2378
S'Crying'
p2379
sS'e_e'
p2380
S'Tired, exhausted'
p2381
sS'sonar'
p2382
S'SOund Navagation And Ranging'
p2383
sS'wug'
p2384
S'What You Got?'
p2385
sS'restecpa'
p2386
S'Respect (Ali G)'
p2387
sS'wayd'
p2388
S'What Are You Doing'
p2389
sS'$_$'
p2390
S'Has money'
p2391
sS'wuf'
p2392
S'Where are you from?'
p2393
sS'picnic'
p2394
S'Problem In Chair Not In Computer'
p2395
sS'itv'
p2396
S'Independent TV (UK)'
p2397
sS'rme'
p2398
S'Rolling My Eyes'
p2399
sS'spexy'
p2400
S'Sexy with glasses'
p2401
sS'dtrt'
p2402
S'Do The Right Thing'
p2403
sS'puma'
p2404
S'Woman who dates younger men'
p2405
sS'cir'
p2406
S'Committed Information Rate (minimum bandwidth)'
p2407
sS'24/7'
p2408
S'Twenty-four hours a day, seven days a week'
p2409
sS'carbon copy'
p2410
g14
sS'mff'
p2411
S'Male and two Females'
p2412
sS'ytp'
p2413
S'YouTube Poop'
p2414
sS'old git'
p2415
g14
sS'3'
p2416
S'The letter E'
p2417
sS'un'
p2418
S'United Nations'
p2419
sS'ddss'
p2420
S'Different Day, Same S**t'
p2421
sS'gtrm'
p2422
S'Going To Read Mail'
p2423
sS'ytb'
p2424
S"You're The Best"
p2425
sS'me too'
p2426
g14
sS'jtb'
p2427
S'Just Too Bad'
p2428
sS'msfam'
p2429
S'My Sister From Another Mister'
p2430
sS'kool'
p2431
S'Cool'
p2432
sS'mfg'
p2433
S'Mit Freundlichen Gruessen (German)'
p2434
sS'aii'
p2435
S'Alright'
p2436
sS'american solider'
p2437
g14
sS'jw'
p2438
S'Just Wondering'
p2439
sS'jp'
p2440
S"Just Playin'"
p2441
sS'js'
p2442
S'Just Saying'
p2443
sS'jj'
p2444
S'Just Joking'
p2445
sS'jk'
p2446
S'Just Kidding'
p2447
sS'please and thank yous'
p2448
g14
sS'trolling'
p2449
S'The act of being a TROLL'
p2450
sS'ja'
p2451
S'Yes (German)'
p2452
sS'jb'
p2453
S'Jail Bait'
p2454
sS'jc'
p2455
S'Jesus Christ'
p2456
sS'jfk'
p2457
S'John Fitzgerald Kennedy'
p2458
sS'yt?'
p2459
S'You Think ?'
p2460
sS'wiyp'
p2461
S'What Is Your Problem?'
p2462
sS'f*** all'
p2463
g14
sS'dkp'
p2464
S'Dragon Kill Points (MMORGPs)'
p2465
sS'gwm'
p2466
S'Gay White Male'
p2467
sS'jff'
p2468
S'Just For Fun'
p2469
sS'gwp'
p2470
S'Gift With Purchase'
p2471
sS'gws'
p2472
S'Get Well Soon'
p2473
sS'tdwp'
p2474
S'The Devil Wears Prada (Band)'
p2475
sS'snyk'
p2476
S'So Now You Know'
p2477
sS'tmao'
p2478
S'Text My A$$ off'
p2479
sS'poz'
p2480
S'HIV positive'
p2481
sS'scuba'
p2482
S'self-contained underwater breathing apparatus'
p2483
sS'pov'
p2484
S'Point Of View'
p2485
sS'pos'
p2486
S'Piece Of S**t'
p2487
sS'pop'
p2488
S'Popular (music)'
p2489
sS'antm'
p2490
S"America's Next Top Model"
p2491
sS'poa'
p2492
S'Plan Of Action'
p2493
sS'oaus'
p2494
S'On An Unrelated Subject'
p2495
sS'sket'
p2496
S'A slut, promiscuous woman'
p2497
sS'wrt'
p2498
S'With Regard to'
p2499
sS'mark'
p2500
S'Target, sucker'
p2501
sS'404'
p2502
S'Page not found error'
p2503
sS'hd '
p2504
S'High-Definition'
p2505
sS'imu'
p2506
S'I miss you'
p2507
sS'boomm'
p2508
S'Bored Out Of My Mind'
p2509
sS'luff'
p2510
S'Friendly Love'
p2511
sS'bmb'
p2512
S'Bebo Me Back'
p2513
sS'quack'
p2514
S'Doctor'
p2515
sS'bma'
p2516
S'Bite My A**'
p2517
sS'bmf'
p2518
S'Be My Friend'
p2519
sS'637'
p2520
S'Always and Forever (letters in each word)'
p2521
sS'obhf'
p2522
S'Old Bald Headed Fart'
p2523
sS'pkit'
p2524
S'Please Keep In Touch'
p2525
sS'bmw'
p2526
S'Bavarian Motor Works (car manufacturer)'
p2527
sS'bmt'
p2528
S'Before My Time'
p2529
sS'ywu?'
p2530
S'Yo Waz Up?'
p2531
sS'fmcg'
p2532
S'Fast Moving Consumer Goods'
p2533
sS'snort cocaine'
p2534
g14
sS'automobile association'
p2535
g14
sS'nmjc'
p2536
S'Not Much Just Chat'
p2537
sS'sound'
p2538
S'Cool, awesome, good'
p2539
sS'ftfy'
p2540
S'fixed that for you'
p2541
sS'hdu'
p2542
S'How Dare You'
p2543
sS'ubd'
p2544
S'User Brain Damage'
p2545
sS'african-american'
p2546
g14
sS"you're a bitch"
p2547
g14
sS'sex'
p2548
g14
sS'text me later'
p2549
g14
sS'ikhyf'
p2550
S'i know how you feel'
p2551
sS'jfc'
p2552
S'Jesus F***ing Christ'
p2553
sS'ftfo'
p2554
S'F*** The F*** Off'
p2555
sS'ftfa'
p2556
S'From The F***ing Article'
p2557
sS'hdl'
p2558
S'Hab Dich Lieb (I love you in German)'
p2559
sS'pwned'
p2560
S'Owned'
p2561
sS'chaw'
p2562
S'Chewing tobacco'
p2563
sS'tt4n'
p2564
S'Ta Ta For Now'
p2565
sS'zonked'
p2566
S'Very tired or inebriated'
p2567
sS'ctrn'
p2568
S'Cant Talk Right now'
p2569
sS'ctrl'
p2570
S'Control (key)'
p2571
sS'world in conflict (game)'
p2572
g14
sS'wuu2?'
p2573
S'what you up to?'
p2574
sS'wwcnd'
p2575
S'What Would Chuck Norris Do?'
p2576
sS'famo'
p2577
S'Friend, dude, family member etc'
p2578
sS'myob'
p2579
S'Mind Your Own Business'
p2580
sS'tyfyt'
p2581
S'Thank You For Your Time'
p2582
sS'see you there'
p2583
g14
sS'ascii'
p2584
S'American Standard Code for Information Interchange'
p2585
sS'blad'
p2586
S"Brother/friend (from 'blood')"
p2587
sS'hxc'
p2588
S'Hardcore (music)'
p2589
sS'isly'
p2590
S'I Still Love You'
p2591
sS'rough tobacco'
p2592
g14
sS'hxe'
p2593
S'Hardcore'
p2594
sS'gfak'
p2595
S'Go Fly A Kite'
p2596
sS'virgin lips'
p2597
g14
sS'yn'
p2598
S'Crossed fingers (MSN)'
p2599
sS'gfac'
p2600
S'Go F*** A Cow'
p2601
sS'otth'
p2602
S'On The Third Hand'
p2603
sS'html'
p2604
S'Hypertext Markup Language'
p2605
sS'iswym'
p2606
S'I See What You Mean'
p2607
sS'paf'
p2608
S'Phone A Friend'
p2609
sS'goon'
p2610
S'Stupid'
p2611
sS'peps'
p2612
S'people'
p2613
sS'pal'
p2614
S'Parents Are Listening'
p2615
sS'yc'
p2616
S"You're Cool/Cute/Crazy"
p2617
sS'foaf'
p2618
S'Friend Of A Friend'
p2619
sS'foad'
p2620
S'F*** Off And Die'
p2621
sS'm&d'
p2622
S'Mum and Dad'
p2623
sS'laughing my nuts off'
p2624
g14
sS'crowd control'
p2625
g14
sS'initialization'
p2626
g14
sS'oic'
p2627
S'Oh, I See'
p2628
sS'nj'
p2629
S'Not Joking'
p2630
sS'oot'
p2631
S'Out Of Town'
p2632
sS'weed'
p2633
S'Marijuana'
p2634
sS'abt2'
p2635
S'About To'
p2636
sS'sim card'
p2637
S'Subscriber Identity Module for a mobile phone'
p2638
sS'tanj'
p2639
S"There Ain't No Justice"
p2640
sS'wtfb'
p2641
S'WTF Bitch'
p2642
sS'defo'
p2643
S'Definitely'
p2644
sS'qft '
p2645
S'Quoted For Truth'
p2646
sS'tmai'
p2647
S'Tell Me About It'
p2648
sS'rip'
p2649
S'Convert music on CD to MP3s'
p2650
sS'nn'
p2651
S'Night Night'
p2652
sS'yhl'
p2653
S'You Have Lost'
p2654
sS'biwm'
p2655
S'Bisexual White Male'
p2656
sS'2day'
p2657
S'Today'
p2658
sS'afaics'
p2659
S'As Far As I Can See'
p2660
sS'afaict'
p2661
S'As Far As I Can Tell'
p2662
sS'ddsos'
p2663
S'Different Day, Same Old S**t'
p2664
sS'ccc'
p2665
S'Coricidin Cough & Cold (Dextromethorophan or DXM).'
p2666
sS'sec'
p2667
S'second'
p2668
sS'imba'
p2669
S'Imbalanced'
p2670
sS'vent'
p2671
S'Ventrilo (internet chat program)'
p2672
sS'ya'
p2673
S'You'
p2674
sS'money'
p2675
g14
sS'imbo'
p2676
S'in My Biased Opinion'
p2677
sS'idwtai'
p2678
S"I Don't Wanna Talk About It"
p2679
sS'gdi'
p2680
S'God Damn It'
p2681
sS'(h)'
p2682
S'Cool dude emoticon on MSN'
p2683
sS'tis'
p2684
S'It Is'
p2685
sS'idky'
p2686
S"I Don't Know Why"
p2687
sS'clueless'
p2688
g14
sS'cl'
p2689
S'Chain Letter'
p2690
sS'ikwyl'
p2691
S'I know where you live'
p2692
sS'blog'
p2693
S'Weblog, online diary'
p2694
sS'f***'
p2695
g14
sS'kul '
p2696
S'Cool'
p2697
sS'4'
p2698
S'For'
p2699
sS'pocko'
p2700
S'Pocket'
p2701
sS'msog'
p2702
S'Multiple Shots on Goal'
p2703
sS'blol'
p2704
S'Big Laugh Out Loud'
p2705
sS'swim'
p2706
S"Someone Who Isn't Me"
p2707
sS'darling daughter'
p2708
g14
sS'aml'
p2709
S'All My Love'
p2710
sS'oop'
p2711
S'Out Of Place'
p2712
sS'psm'
p2713
S'Personal Short Message'
p2714
sS'mos'
p2715
S'Mom Over Shoulder'
p2716
sS'amc'
p2717
S'American Motors Corportation'
p2718
sS'rolf'
p2719
S'Rolling On Laughing Floor'
p2720
sS'psf'
p2721
S'Porn Star Finish'
p2722
sS'dnftt'
p2723
S'Do Not Feed The Troll'
p2724
sS'amg'
p2725
S'Ah My God'
p2726
sS'amf'
p2727
S'Adios, Mother F***er'
p2728
sS'awol'
p2729
S'Absent Without Leave'
p2730
sS'moi'
p2731
S'Me (French)'
p2732
sS'amz'
p2733
S'Amazing'
p2734
sS'killa'
p2735
S'Good quality weed'
p2736
sS'mol'
p2737
S'More Or Less'
p2738
sS'moc'
p2739
S'Marriage Of Convenience'
p2740
sS'amp'
p2741
S'Amplifier'
p2742
sS'psp'
p2743
S'PlayStation Portable'
p2744
sS'cd'
p2745
S'Compact Disc'
p2746
sS'transgender'
p2747
g14
sS'pst'
p2748
S'Please Send Tell'
p2749
sS'amv'
p2750
S'Anime Music Video'
p2751
sS'cmeo'
p2752
S'Crying My Eyes Out'
p2753
sS'nay'
p2754
S'No'
p2755
sS'wbs'
p2756
S'Write Back Soon'
p2757
sS'.mil'
p2758
S'Top level domain for the military'
p2759
sS'tweeker'
p2760
S'A methamphetamine user'
p2761
sS'stby'
p2762
S'Sucks To Be You'
p2763
sS'grk'
p2764
S'Greek'
p2765
sS'gimme'
p2766
S'Give me'
p2767
sS'files to peers'
p2768
g14
sS'wbn'
p2769
S'Would Be Nice'
p2770
sS'head office'
p2771
g14
sS'tic'
p2772
S'Tongue in Cheek'
p2773
sS'wttm'
p2774
S'Without Thinking Too Much'
p2775
sS';p'
p2776
S'Winking and sticking tongue out'
p2777
sS'pmp'
p2778
S'Portable Media Player'
p2779
sS'org'
p2780
S'Organization'
p2781
sS'vsf'
p2782
S'Go F*** Yourself in Portuguese'
p2783
sS'ihnfc'
p2784
S'I Have No F***ing Clue'
p2785
sS'tvm'
p2786
S'Thanks Very Much'
p2787
sS'lbdn'
p2788
S'Look Busy Doing Nothing'
p2789
sS'lshmbh'
p2790
S'Laughing So Hard My Belly Hurts'
p2791
sS'o/'
p2792
S'High Five'
p2793
sS'jgi'
p2794
S'just google it'
p2795
sS'ttyrs'
p2796
S'Talk To You Real Soon'
p2797
sS'kma'
p2798
S'Kiss My Ass'
p2799
sS'ddr'
p2800
S'Dance Dance Revolution (Game)'
p2801
sS'4srs'
p2802
S'For Serious?'
p2803
sS'handheld transceiver'
p2804
g14
sS'legal'
p2805
S'Legally old enough (for sex)'
p2806
sS'ddt'
p2807
S"Don't Do That"
p2808
sS'tots'
p2809
S'Totally'
p2810
sS'ddi'
p2811
S"Don't Do It"
p2812
sS'kmt'
p2813
S'Kiss My Teeth'
p2814
sS'cu'
p2815
S'See You'
p2816
sS'tott'
p2817
S'Think on These Things'
p2818
sS'ddg'
p2819
S'Drop Dead Gorgeous'
p2820
sS'ddf'
p2821
S'Drug and Disease Free'
p2822
sS'mwah'
p2823
S'Kiss'
p2824
sS'ilusm'
p2825
S'I love you so much'
p2826
sS'nmu'
p2827
S'Not Much, You?'
p2828
sS'asas'
p2829
S'As soon as sensible'
p2830
sS'nms'
p2831
S'Not My Style'
p2832
sS'aykm'
p2833
S'are you kidding me'
p2834
sS'asap'
p2835
S'As Soon as Possible'
p2836
sS'lmfao'
p2837
S'Laughing My F***ing @$$ Off'
p2838
sS'tdg'
p2839
S'Too Damn Good'
p2840
sS'bbm'
p2841
S'Blackberry Messaging'
p2842
sS'dumb young b***h'
p2843
g14
sS'^_^'
p2844
S'Happiness, satisfied'
p2845
sS'nmn'
p2846
S'No Middle Name'
p2847
sS'nmo'
p2848
S'Not My Opinion'
p2849
sS';)'
p2850
S'Wink'
p2851
sS';('
p2852
S'Crying'
p2853
sS'nmj'
p2854
S'Not My Job'
p2855
sS'nmi'
p2856
S'Need More Info'
p2857
sS'oo'
p2858
S'Object Orientated'
p2859
sS'wols'
p2860
S'Slow'
p2861
sS'om'
p2862
S'the Old Man'
p2863
sS'fnb'
p2864
S'Football And Beer'
p2865
sS'ok'
p2866
S'Only Kidding'
p2867
sS'oj'
p2868
S'Only Joking'
p2869
sS'oi'
p2870
S'Hey'
p2871
sS'oh'
p2872
S'Other Half'
p2873
sS'og'
p2874
S'Original Gangster'
p2875
sS'ducwic'
p2876
S'Do You See What I See?'
p2877
sS'srh'
p2878
S'Supporting Radical Habits (Clothing)'
p2879
sS'od'
p2880
S'Overdose'
p2881
sS'oc'
p2882
S'Of Course'
p2883
sS'sro'
p2884
S'Standing Room Only'
p2885
sS'oa'
p2886
S'Over Acting'
p2887
sS'srs'
p2888
S'Serious'
p2889
sS'241'
p2890
S'Two For One'
p2891
sS'oy'
p2892
S'oh yeah'
p2893
sS'best email friend'
p2894
g14
sS'os'
p2895
S'Operating system'
p2896
sS'ianal'
p2897
S'I Am Not A Lawyer (this is an uninformed opinion)'
p2898
sS'op'
p2899
S'Overpowered'
p2900
sS'2nite'
p2901
S'Tonight'
p2902
sS'too much detail'
p2903
g14
sS'bcos'
p2904
S'Because'
p2905
sS'nrfb'
p2906
S'Never Removed From Box'
p2907
sS'gomes'
p2908
S'To s**t oneself by accident'
p2909
sS'wygowm'
p2910
S'will you go out with me'
p2911
sS'rtfaq'
p2912
S'Read The FAQ'
p2913
sS'gtgp'
p2914
S'Got To Go Pee'
p2915
sS'loa'
p2916
S'Leave of Absence'
p2917
sS'730'
p2918
S'Crazy'
p2919
sS'crunk'
p2920
S'Crazy and drunk'
p2921
sS'order of the british empire'
p2922
g14
sS'loi'
p2923
S'Laughing On the Inside'
p2924
sS'lol'
p2925
S'Laughing Out Loud'
p2926
sS'los'
p2927
S'Line Of Site'
p2928
sS'loq'
p2929
S'Laugh Out Quietly'
p2930
sS'wcb '
p2931
S'Will Call Back'
p2932
sS'hea'
p2933
S'Happily Ever After'
p2934
sS'loz'
p2935
S'Legend of Zelda'
p2936
sS'heh'
p2937
S'Cynical laugh'
p2938
sS'tf2'
p2939
S'Team Fortress 2 (Game)'
p2940
sS'witw'
p2941
S'What In The World'
p2942
sS'myggwy'
p2943
S'May Your God Go With You'
p2944
sS'juz'
p2945
S'Just'
p2946
sS'wal'
p2947
S'What A Loser'
p2948
sS'mm2'
p2949
S'Message Mode 2 (CS)'
p2950
sS'with'
p2951
S'Where In The Hell'
p2952
sS'gorm'
p2953
S'Gormless person'
p2954
sS'over doing it'
p2955
g14
sS'lylmb'
p2956
S'love you like my brother'
p2957
sS'jsyk'
p2958
S'Just So You Know'
p2959
sS'deep and meaningful'
p2960
g14
sS'non-breaking space'
p2961
g14
sS'cbb'
p2962
S"Can't Be Bothered"
p2963
sS'dndc'
p2964
S"Don't Know, Don't Care"
p2965
sS'ac'
p2966
S'Air Conditioning'
p2967
sS'cba'
p2968
S'Cant Be Assed'
p2969
sS'deez'
p2970
S'These'
p2971
sS'ad'
p2972
S'Anno Domini (in the year of our Lord)'
p2973
sS'ag'
p2974
S'Aggressive'
p2975
sS'af'
p2976
S'Aunt Flo (Menstruation)'
p2977
sS'ai'
p2978
S'As If'
p2979
sS'bbiaf'
p2980
S'Be Back In A Few'
p2981
sS'ak'
p2982
S'AK-47 Assault Rifle'
p2983
sS'am'
p2984
S'Ante Meridian (before midday)'
p2985
sS'bbiab'
p2986
S'Be Back In A Bit'
p2987
sS'ap'
p2988
S'Associated Press'
p2989
sS'ar'
p2990
S'Assult Rifle'
p2991
sS'au'
p2992
S'Alternate Universe'
p2993
sS'cbt'
p2994
S'Cognitive Behavioural Therapy'
p2995
sS'av'
p2996
S'Anti-Virus'
p2997
sS'swagga'
p2998
S'Style or personality'
p2999
sS'adsl'
p3000
S'Asymmetric Digital Subscriber Line'
p3001
sS'filo'
p3002
S'First In, Last out'
p3003
sS'nerd'
p3004
S'Intelligent but socially inept person'
p3005
sS'nerf'
p3006
S'Weaken'
p3007
sS'homo '
p3008
S'Homosexual (insult)'
p3009
sS'igu'
p3010
S'I Give Up'
p3011
sS'igs'
p3012
S'I Guess So'
p3013
sS'purdy'
p3014
S'Pretty'
p3015
sS'sry'
p3016
S'Sorry'
p3017
sS'idiot'
p3018
g14
sS'uber '
p3019
S'Ultimate, best (German for above)'
p3020
sS'wyta'
p3021
S'what you talkin about'
p3022
sS'sysop'
p3023
S'System Operator'
p3024
sS'wallhax'
p3025
S'Wall hack (allows a player to walk through walls)'
p3026
sS'effin'
p3027
S'F***ing'
p3028
sS'nasa'
p3029
S'National Aeronautics and Space Administration'
p3030
sS'd2m'
p3031
S'Dead to Me'
p3032
sS'besos'
p3033
S'Kisses (Spanish)'
p3034
sS'ign'
p3035
S'In Game Name'
p3036
sS'you'
p3037
g14
sS'igi'
p3038
S'I Get It'
p3039
sS'smdhe'
p3040
S'Some Mothers Do Have Em'
p3041
sS'edited to add'
p3042
g14
sS'otc'
p3043
S'Over The Counter'
p3044
sS'wtfayta'
p3045
S'What The F*** Are You Talking About?'
p3046
sS'dow jones'
p3047
g14
sS'hwb'
p3048
S'Hottie With Body'
p3049
sS'ote'
p3050
S'Over The Edge'
p3051
sS'kypo'
p3052
S'Keep Your Panties On'
p3053
sS'poof'
p3054
S'Homosexual'
p3055
sS'n1'
p3056
S'Nice One'
p3057
sS'rp'
p3058
S'Role Play'
p3059
sS'hwu'
p3060
S"Hey, What's Up?"
p3061
sS'hwp'
p3062
S'Height Weight Proportional'
p3063
sS'boltop'
p3064
S'Better On Lips Than On Paper'
p3065
sS'cpl'
p3066
S'Cyberathlete Professional League (gaming)'
p3067
sS'lysm'
p3068
S'Love You So Much'
p3069
sS'cpa'
p3070
S'Certified Piece of A$$'
p3071
sS'wifi'
p3072
S'Wireless Fidelity, wireless internet'
p3073
sS'ssdd'
p3074
S'Same Stuff Different Day'
p3075
sS'wag'
p3076
S'Wild Ass Guess'
p3077
sS'u'
p3078
S'you'
p3079
sS'cpr'
p3080
S'Cardiopulmonary Resuscitation'
p3081
sS'cpu'
p3082
S'Central Processing Unit'
p3083
sS'lsmih'
p3084
S'laughing so much it hurts'
p3085
sS'pto'
p3086
S'Paid Time Off'
p3087
sS'uc&p'
p3088
S'Up Close and Personal'
p3089
sS'ptl'
p3090
S'Praise The Lord'
p3091
sS'sch'
p3092
S'School'
p3093
sS'ali'
p3094
S'Best Friend'
p3095
sS'ptb'
p3096
S'Powers That Be'
p3097
sS'ala'
p3098
S'In the style of (French)'
p3099
sS'besitos'
p3100
S'Little kisses (Spanish)'
p3101
sS'cascading style sheet'
p3102
g14
sS'mp3'
p3103
S'Music file (MPEG Layer 3)'
p3104
sS'ptw'
p3105
S'Play To Win'
p3106
sS'newbie'
p3107
S'New Person'
p3108
sS'liam'
p3109
S'Pimp'
p3110
sS'4e4'
p3111
S'Forever'
p3112
sS'mnf'
p3113
S'Monday Night Football'
p3114
sS'l8er'
p3115
S'Later'
p3116
sS'cfnm'
p3117
S'Clothed Female Naked Male'
p3118
sS'secure digital (memory card)'
p3119
g14
sS'gq'
p3120
S'Gentlemen Quarterly (magazine)'
p3121
sS'tx'
p3122
S'Thanks'
p3123
sS're'
p3124
S'Regarding'
p3125
sS'imma'
p3126
S"I'm Going To"
p3127
sS'tt'
p3128
S'Telegrahic Transfer'
p3129
sS'wmp'
p3130
S'Windows Media Player'
p3131
sS'l33t'
p3132
S'Elite'
p3133
sS'tp'
p3134
S'Toilet Paper'
p3135
sS'tq'
p3136
S'Thank You'
p3137
sS'to'
p3138
S'Time Out'
p3139
sS'init'
p3140
S"Isn't it?"
p3141
sS'tm'
p3142
S'Text Message'
p3143
sS'hakas'
p3144
S'Have A Kick @$$ Summer'
p3145
sS'tg'
p3146
S'Thank God'
p3147
sS'otw'
p3148
S'On The Whole'
p3149
sS'tb'
p3150
S'Text Back'
p3151
sS'iitywimiwhtky'
p3152
S'If I Tell You What It Means I Will Have to Kill You'
p3153
sS'ra'
p3154
S'Resident Advisor'
p3155
sS'vers'
p3156
S'Versatile'
p3157
sS'pple'
p3158
S'People'
p3159
sS'fas'
p3160
S'Funny A$$ S**t'
p3161
sS'faq'
p3162
S'Frequently Asked Question'
p3163
sS'ysi'
p3164
S'you stupid idiot'
p3165
sS'ilylas'
p3166
S'I Love You Like A Sister'
p3167
sS'rl'
p3168
S'Real Life'
p3169
sS'icam'
p3170
S"I couldn't agree more"
p3171
sS'fai'
p3172
S'Forget About It'
p3173
sS'fao'
p3174
S'For Attention Of'
p3175
sS'fam'
p3176
S'Family'
p3177
sS'rotfl'
p3178
S'Rolling On The Floor Laughing'
p3179
sS'pplz'
p3180
S'Peoples'
p3181
sS'faf'
p3182
S'Fit as F***'
p3183
sS'fag'
p3184
S'Cigarette'
p3185
sS'rox'
p3186
S'Rocks'
p3187
sS'pbq'
p3188
S'Please Be Quiet'
p3189
sS'pbr'
p3190
S'Pabst Blue Ribbon (beer)'
p3191
sS'hyh'
p3192
S'Have You Heard'
p3193
sS'sk8r'
p3194
S'skater'
p3195
sS'wsp'
p3196
S"What's up?"
p3197
sS'hys'
p3198
S'Have Your Say'
p3199
sS'nitm'
p3200
S'Not In The Mood'
p3201
sS'scnr'
p3202
S'Sorry, Could Not Resist'
p3203
sS'bwth'
p3204
S'But What The Hell'
p3205
sS'peon'
p3206
S'Low ranking person'
p3207
sS'teh'
p3208
S'The'
p3209
sS'wubu'
p3210
S'What You Been Up to?'
p3211
sS'young adult'
p3212
g14
sS'nwly'
p3213
S'Never Wanna Lose You'
p3214
sS'newfag'
p3215
S'Newcomer'
p3216
sS'idts'
p3217
S"I Don't Think So"
p3218
sS'orgasm'
p3219
g14
sS'pc4pc'
p3220
S'Picture Comment For Picture Comment.'
p3221
sS'nbc'
p3222
S'National Broadcasting Company'
p3223
sS'dgot'
p3224
S"Don't Go Over There"
p3225
sS'asbo'
p3226
S'Anti Social Behaviour Order'
p3227
sS'nbd'
p3228
S'No Big Deal'
p3229
sS'otoh'
p3230
S'On The Other Hand'
p3231
sS'k.i.a'
p3232
S'Killed In Action'
p3233
sS'abc'
p3234
S'American Born Chinese'
p3235
sS'diaf'
p3236
S'Die In A Fire'
p3237
sS'love you always and forever'
p3238
g14
sS'sum'
p3239
S'Some'
p3240
sS'btaim'
p3241
S'Be That As It May'
p3242
sS'abn'
p3243
S'Asshole By Nature'
p3244
sS'tfm2kau2fo'
p3245
S"THAT'S FOR ME TO KNOW AND YOU TO FIND OUT"
p3246
sS'onna'
p3247
S'Oh No, Not Again'
p3248
sS'suv'
p3249
S'Sport Utility Vehicle'
p3250
sS'abs'
p3251
S'Absolutely'
p3252
sS'sup'
p3253
S"What's Up"
p3254
sS'sux'
p3255
S'Sucks'
p3256
sS'b2w'
p3257
S'Back To Work'
p3258
sS'cul8er'
p3259
S'See You Later'
p3260
sS'topper'
p3261
S'Person who always has a better story'
p3262
sS'gga'
p3263
S'Good Game All'
p3264
sS'tlgo'
p3265
S'The List Goes On'
p3266
sS'tagl'
p3267
S"There's a good lad"
p3268
sS'ggn'
p3269
S'Gotta Go Now'
p3270
sS'b2b'
p3271
S'Back To Back'
p3272
sS'34'
p3273
S'Anal sex'
p3274
sS'fwd'
p3275
S'Foward (Email)'
p3276
sS'loml'
p3277
S'Love Of My Life'
p3278
sS'mmo'
p3279
S'Short for MMORPG'
p3280
sS'fwb'
p3281
S'Friends With Benefits'
p3282
sS'twtmc'
p3283
S'To Whom This May Concern'
p3284
sS'stella'
p3285
S'Flirty girl'
p3286
sS'resident assistant'
p3287
g14
sS'pwor'
p3288
S'Proceeding With Orders Recieved'
p3289
sS'mfic'
p3290
S'Mother F***er In Charge'
p3291
sS'area 51'
p3292
S'Top secret military base in Nevada'
p3293
sS'llap'
p3294
S'Live Long and Prosper'
p3295
sS'tw@'
p3296
S'T**t'
p3297
sS'mmk'
p3298
S'UMM OK'
p3299
sS'adidas'
p3300
S'German sportswear company'
p3301
sS'vip'
p3302
S'Very Important Person'
p3303
sS'vc'
p3304
S'Voice Chat'
p3305
sS'aota'
p3306
S'All Of The Above'
p3307
sS'dttm'
p3308
S"Don't Talk To Me"
p3309
sS'rafl'
p3310
S'ROFL'
p3311
sS'dgaf'
p3312
S"Don't Give A F***"
p3313
sS'vf'
p3314
S'VampireFreaks'
p3315
sS'mawoy'
p3316
S'May Angels Watch Over You'
p3317
sS'rotgl'
p3318
S'Rolling On The Ground Laughing'
p3319
sS'gigo'
p3320
S'Garbage In, Garbage Out'
p3321
sS'eyo'
p3322
S'Hey, yo(u)'
p3323
sS'nbsp'
p3324
S'No Bulls**t Please'
p3325
sS'ottomh'
p3326
S'Off The Top Of My Head'
p3327
sS'morf'
p3328
S'Male or Female'
p3329
sS'my own opinion'
p3330
g14
sS'rest in peace'
p3331
g14
sS'/b/'
p3332
S"4chan's random image board"
p3333
sS'vl'
p3334
S'Very loud'
p3335
sS'company'
p3336
g14
sS'vm'
p3337
S'Voice Mail'
p3338
sS'ikwydls'
p3339
S'I know what you did last summer'
p3340
sS'flag'
p3341
S'Bandana'
p3342
sS'years old'
p3343
g14
sS'pmsl'
p3344
S'P***ing myself laughing'
p3345
sS'doom'
p3346
S'Classic FPS'
p3347
sS"i'm over it"
p3348
g14
sS'hlas'
p3349
S'Hook, Line And Sinker'
p3350
sS'grill'
p3351
S'Tooth Jewelry'
p3352
sS'smh'
p3353
S'Shaking My Head'
p3354
sS'jdi'
p3355
S'Just Do It'
p3356
sS'ywimc'
p3357
S'Your Wish Is My Command'
p3358
sS'h/o'
p3359
S'Hold On'
p3360
sS'der'
p3361
S'Duh!'
p3362
sS'pr'
p3363
S'Public Relations'
p3364
sS'den'
p3365
S'Then'
p3366
sS'not touching that!'
p3367
g14
sS'i beg to differ'
p3368
g14
sS'deb'
p3369
S"Don't Even Bother"
p3370
sS'ded'
p3371
S'Dead from joy, hilarity etc'
p3372
sS'def'
p3373
S'Cool, great, excellent'
p3374
sS'wmmows'
p3375
S'Wash My Mouth Out With Soap!'
p3376
sS'scam'
p3377
S'Rip off'
p3378
sS'nice job'
p3379
g14
sS'f9'
p3380
S'Fine'
p3381
sS'fsbm'
p3382
S'Full Sensual Body Message'
p3383
sS'country code'
p3384
g14
sS'corrections officer'
p3385
g14
sS'lolol'
p3386
S'Lots Of Laughing Out Loud'
p3387
sS'bffe'
p3388
S'Best Friends Forever'
p3389
sS'bffn'
p3390
S'Best Friend For Now'
p3391
sS'bffl'
p3392
S'Best Freinds For Life'
p3393
sS'iono'
p3394
S"I don't know"
p3395
sS'bogo'
p3396
S'Buy One Get One'
p3397
sS'ryn'
p3398
S'Read Your Note'
p3399
sS'thwu'
p3400
S'To Hell With You'
p3401
sS'b4mv'
p3402
S'Bullet For My Valentine (Band)'
p3403
sS'lqtm'
p3404
S'laughing quietly to myself'
p3405
sS'+1'
p3406
S'Partner'
p3407
sS'mbfam '
p3408
S'My Brother From Another Mother'
p3409
sS'wdymbt'
p3410
S'What Do You Mean By That?'
p3411
sS'btgog'
p3412
S'By The Grace Of God'
p3413
sS'wind-up merchant'
p3414
g14
sS'lmfo'
p3415
S'Laughing My Face Off'
p3416
sS'css'
p3417
S'Counter Strike: Source'
p3418
sS'distro'
p3419
S'Distribution (software, music, etc)'
p3420
sS'bolshy'
p3421
S'Bolshevik, communist'
p3422
sS'fs'
p3423
S'For Sale'
p3424
sS'ft'
p3425
S'F*** That'
p3426
sS'bka'
p3427
S'Better Known As'
p3428
sS'rbau'
p3429
S'Right Back At You'
p3430
sS'fw'
p3431
S'Forward'
p3432
sS'fx'
p3433
S'Effects'
p3434
sS'fy'
p3435
S'F*** You'
p3436
sS'fa'
p3437
S'Fat Admirer'
p3438
sS'fb'
p3439
S'Facebook'
p3440
sS'fc'
p3441
S'Fingers Crossed'
p3442
sS'fe'
p3443
S'Fair Enough'
p3444
sS'ff'
p3445
S'Final Fantasy'
p3446
sS'out the door'
p3447
g14
sS'fh'
p3448
S'F**king Hell'
p3449
sS'fi'
p3450
S'Forget It'
p3451
sS'w8am'
p3452
S'Wait A Minute'
p3453
sS'fk'
p3454
S'French Kiss'
p3455
sS'fl'
p3456
S'Fake Laugh'
p3457
sS'fm'
p3458
S'Freqeuncy modulation (radio signal)'
p3459
sS'get/post/cookie (web pages)'
p3460
g14
sS'fo'
p3461
S'F**k Off'
p3462
sS'hate (opposite of <3)'
p3463
g14
sS'n00b'
p3464
S'Newbie'
p3465
sS'hfs'
p3466
S'Holy F***ing S**t'
p3467
sS'paw'
p3468
S'Parents are watching'
p3469
sS'brudda'
p3470
S'Brother'
p3471
sS'lhh'
p3472
S'Laughing Hella Hard'
p3473
sS'f@'
p3474
S'Fat'
p3475
sS'bogof'
p3476
S'Buy One Get One Free'
p3477
sS'2u'
p3478
S'To You'
p3479
sS'xxx'
p3480
S'Kisses'
p3481
sS'glotr'
p3482
S'Good Luck On The Rebuild'
p3483
sS'itn'
p3484
S'I Think Not'
p3485
sS'ttfl'
p3486
S'Ta Ta For Later'
p3487
sS'itk'
p3488
S'In The Know'
p3489
sS'bich'
p3490
S'Bitch'
p3491
sS'sood'
p3492
S'Cool'
p3493
sS'ite'
p3494
S'Alright? (Hello)'
p3495
sS'ffs'
p3496
S'For F**** Sake'
p3497
sS'ffr'
p3498
S'Flash Flash Revolution (game)'
p3499
sS'ita'
p3500
S'I Totally Agree'
p3501
sS'atst'
p3502
S'At The Same Time'
p3503
sS'icbb'
p3504
S"I can't be bothered"
p3505
sS'itt'
p3506
S'In This Thread'
p3507
sS'its'
p3508
S'I Think/Thought So'
p3509
sS'ffa'
p3510
S'Free For All'
p3511
sS'rotflmao'
p3512
S'Rolling On The Floor Laughing My A$$ Off'
p3513
sS'sg2m'
p3514
S'Sounds Good To Me'
p3515
sS'^5'
p3516
S'High five'
p3517
sS'thnx'
p3518
S'Thanks'
p3519
sS'w00t'
p3520
S'Hurrah'
p3521
sS'peng'
p3522
S'Good looking person'
p3523
sS'tshtf'
p3524
S'The S**t Hits The Fan'
p3525
sS'wru'
p3526
S'Where are you?'
p3527
sS'latm'
p3528
S'Laughing At The Moment'
p3529
sS'bout'
p3530
S'About'
p3531
sS'cool'
p3532
S'Awesome, great'
p3533
sS'pcd'
p3534
S'Pussycat Dolls'
p3535
sS'goog'
p3536
S'Ecstasy pill'
p3537
sS'yh'
p3538
S'yeah'
p3539
sS'ym'
p3540
S'Yahoo Messenger'
p3541
sS'yl'
p3542
S'Young Lady'
p3543
sS'yo'
p3544
S'Your'
p3545
sS'yasny'
p3546
S"You Ain't Seen Nothing Yet"
p3547
sS'ceo'
p3548
S'Chief Executive Officer'
p3549
sS'cool, awesome'
p3550
g14
sS'nmjcu'
p3551
S"Not Much, Just Chillin', U?"
p3552
sS'ye'
p3553
S'Yes, yeah'
p3554
sS'yf'
p3555
S'Your Friend'
p3556
sS'uhu'
p3557
S'Misspelling of Huh'
p3558
sS'ces'
p3559
S'Consumer Electronics Show'
p3560
sS'yr'
p3561
S'Yea, Right.'
p3562
sS'yt'
p3563
S'Are you there?'
p3564
sS'yw'
p3565
S"You're Welcome"
p3566
sS'muah'
p3567
S'The sound of giving a kiss'
p3568
sS'wallah'
p3569
S'I swear to God in Arabic'
p3570
sS'( . y . )'
p3571
S'Boobs'
p3572
sS'level'
p3573
g14
sS'iff'
p3574
S'If and only if'
p3575
sS'wayoa'
p3576
S'What Are You On About?'
p3577
sS'2b'
p3578
S'To Be'
p3579
sS'ynt'
p3580
S'Why Not?'
p3581
sS'2m'
p3582
S'Tomorrow'
p3583
sS'anfscd'
p3584
S'And Now For Something Completely Different'
p3585
sS'gui'
p3586
S'Graphical User Interface'
p3587
sS'gfy'
p3588
S'Good For You'
p3589
sS'idek'
p3590
S"I Don't Even Know"
p3591
sS'peeps'
p3592
S'People'
p3593
sS'fish'
p3594
S'First In Still Here'
p3595
sS'gfu'
p3596
S'Good For You'
p3597
sS'gfi'
p3598
S'Go For It'
p3599
sS'gfn'
p3600
S'Gone For Now'
p3601
sS'gfc'
p3602
S'Global Financial Crisis'
p3603
sS'ytmnd'
p3604
S"You're the man now, dog (website)"
p3605
sS'gfd'
p3606
S'God F***ing Damnit'
p3607
sS'gfe'
p3608
S'Girl Friend Experience'
p3609
sS'ftp'
p3610
S'File Transfer Protocol'
p3611
sS'fts'
p3612
S'F*** This S***'
p3613
sS'ftr'
p3614
S'For The Record'
p3615
sS'prolly'
p3616
S'Probably'
p3617
sS'ftw'
p3618
S'For The Win'
p3619
sS'd/c'
p3620
S'Disconnected'
p3621
sS'invu'
p3622
S'I envy you'
p3623
sS'lolo'
p3624
S'Lowrider'
p3625
sS'pwnd'
p3626
S'Owned'
p3627
sS'mysm'
p3628
S'Miss You So Much'
p3629
sS'ftb'
p3630
S'F*** the BS'
p3631
sS'wwjd'
p3632
S'What Would Jesus Do?'
p3633
sS'ftf'
p3634
S'First To Find'
p3635
sS'lolz'
p3636
S'Laugh Out Loud (with sarcasm)'
p3637
sS'lolx'
p3638
S'LOL'
p3639
sS'ftm'
p3640
S'Female To Male'
p3641
sS'ftl'
p3642
S'Faster Than Light'
p3643
sS'<_<'
p3644
S'Sarcasm, look left'
p3645
sS'koi'
p3646
S'Koibito (Japenese for lover)'
p3647
sS'asp'
p3648
S'At Some Point'
p3649
sS'sbt'
p3650
S"Sorry 'Bout That"
p3651
sS'norwich'
p3652
S'Knickers Off Ready When I Come Home'
p3653
sS'pug'
p3654
S'Pick Up Group'
p3655
sS'mms'
p3656
S'Multimedia Messaging Service'
p3657
sS'asa'
p3658
S'and so on'
p3659
sS'sbf'
p3660
S'Single Black Female'
p3661
sS'wtfu'
p3662
S'Wake The F*** Up'
p3663
sS'acorn'
p3664
S'Small penis'
p3665
sS'mmf'
p3666
S'2 Males and a Female'
p3667
sS'aso'
p3668
S'And So On'
p3669
sS'asl'
p3670
S'Age, Sex, Location'
p3671
sS'futab'
p3672
S'Feet Up, Take A Break'
p3673
sS'wltm'
p3674
S'Would Like To Meet'
p3675
sS'lmirl'
p3676
S"Let's Meet In Real Life"
p3677
sS'sytycd'
p3678
S'So You Think You Can Dance'
p3679
sS'j2lyk'
p3680
S'Just To Let You Know'
p3681
sS'taht'
p3682
S'That'
p3683
sS'wtfh'
p3684
S'What The F***ing Hell?'
p3685
sS'ykims'
p3686
S'You Know It Makes Sense'
p3687
sS'wtfo'
p3688
S'What The F**k, Over'
p3689
sS'fcol'
p3690
S'For Crying Out Loud'
p3691
sS'miso'
p3692
S'My Internet Shut Off'
p3693
sS'dink'
p3694
S'Dual Income No Kids'
p3695
sS'thx'
p3696
S'Thanks'
p3697
sS'black man'
p3698
g14
sS'titcr'
p3699
S'This Is The Credited Response'
p3700
sS'guap'
p3701
S'Money'
p3702
sS'jwas'
p3703
S'Just Wait And See'
p3704
sS'donk'
p3705
S'Large bottom'
p3706
sS'rents'
p3707
S'Parents'
p3708
sS'gpl'
p3709
S'General Public License'
p3710
sS'kol'
p3711
S'Kingdom Of Loathing (Game)'
p3712
sS'm4m'
p3713
S'Man looking for another man'
p3714
sS'gpa'
p3715
S'Grade-Point Average'
p3716
sS'gpc'
p3717
S'Generic Pack of Cigarettes'
p3718
sS'ilysfm'
p3719
S'i love you so f***** much'
p3720
sS'187'
p3721
S'Police code for murder or death'
p3722
sS'dfk'
p3723
S'Deep French Kissing'
p3724
sS'sigh'
p3725
S'Exhale depressedly'
p3726
sS'gpu'
p3727
S'Graphics Processing Unit'
p3728
sS'gps'
p3729
S'Global Positioning System'
p3730
sS'rawr'
p3731
S'Right Answer, Wrong Reason'
p3732
sS'sete'
p3733
S'Smiling Ear To Ear'
p3734
sS'ikwum'
p3735
S'I Know What You Mean'
p3736
sS'tff'
p3737
S'Too F***ing Funny'
p3738
sS'tfb'
p3739
S'Too F***ing Bad'
p3740
sS'before your time'
p3741
g14
sS'(l)'
p3742
S'Love heart on MSN'
p3743
sS'welc'
p3744
S"You're Welcome"
p3745
sS'word'
p3746
S'Ok, I agree, hey'
p3747
sS'kilobytes'
p3748
g14
sS'rawk'
p3749
S'Rock'
p3750
sS'</3'
p3751
S'Broken Hearted'
p3752
sS'tfs'
p3753
S'Thanks For Sharing'
p3754
sS'std'
p3755
S'Shrinking To Dust/ ......Being totally humiliated'
p3756
sS'stf'
p3757
S'Shut The Fuck'
p3758
sS'aaf'
p3759
S'Always and Forever'
p3760
sS'person struggling to make something of their life'
p3761
g14
sS'aab'
p3762
S'Average At Best'
p3763
sS'dtb'
p3764
S"Don't Text Back"
p3765
sS'dta'
p3766
S"Don't Trust Anyone"
p3767
sS'sth'
p3768
S'Something'
p3769
sS'dtf'
p3770
S'Down To F***'
p3771
sS'aak'
p3772
S'Alive And Kicking'
p3773
sS'stw'
p3774
S'Search The Web'
p3775
sS'dank'
p3776
S'Very potent marijuana'
p3777
sS'aar'
p3778
S'At Any Rate'
p3779
sS'dang'
p3780
S'Damn'
p3781
sS'esad'
p3782
S'Eat S**t And Die'
p3783
sS'dtt'
p3784
S"Don't Touch That"
p3785
sS'bhh'
p3786
S'Bless His/Her Heart'
p3787
sS'881'
p3788
S'Bye-bye (from Chinese pronounciation)'
p3789
sS'gbfn'
p3790
S'Goodbye for Now'
p3791
sS'bhm'
p3792
S'Big Handsome Man'
p3793
sS'886'
p3794
S'Bye Bye (Hong Kong Cantonese)'
p3795
sS'bho'
p3796
S'Barak Hussein Obama'
p3797
sS'tinalo'
p3798
S'This Is Not A Legal Opinion'
p3799
sS'tafn'
p3800
S"That's All For Now"
p3801
sS'cwtcu'
p3802
S"Can't Wait To See You"
p3803
sS'cept'
p3804
S'Except'
p3805
sS'image file format'
p3806
g14
sS'wysiwyg'
p3807
S'what you see is what you get'
p3808
sS'w4m'
p3809
S'Woman looking for a man'
p3810
sS'tyvm'
p3811
S'Thank You Very Much'
p3812
sS'lig'
p3813
S'Let It Go'
p3814
sS'fyeo'
p3815
S'For Your Eyes Only'
p3816
sS'lil'
p3817
S'Little'
p3818
sS'bfut'
p3819
S'Best Friends Until Tomorrow'
p3820
sS'kthxbi'
p3821
S'Okay, Thanks, Bye (usually used dismissively)'
p3822
sS'wyd'
p3823
S'What You Doing?'
p3824
sS'poned'
p3825
S'Powerfully owned, dominated'
p3826
sS'lis'
p3827
S'Laughing In Silence'
p3828
sS'efa'
p3829
S'Edited For Accuracy'
p3830
sS'rrp'
p3831
S'Recommended Retail Price'
p3832
sS'me2'
p3833
S'Me Too'
p3834
sS'e&oe'
p3835
S'Errors and omissions excluded'
p3836
sS'bohica'
p3837
S'Bend Over Here It Comes Again'
p3838
sS'buff'
p3839
S'Good Looking'
p3840
sS'lmbo'
p3841
S'Laughing My Butt Off'
p3842
sS'mosh'
p3843
S'Push/shove at rock/punk concert'
p3844
sS'vnh'
p3845
S'very nice hand (in online card games, especialy poker)'
p3846
sS'coca cola'
p3847
g14
sS'73'
p3848
S'Best regards (Amateur Radio)'
p3849
sS'utt'
p3850
S'Under The Table'
p3851
sS'bbeg'
p3852
S'Big Bad Evil Guy'
p3853
sS'tmth'
p3854
S'Too Much To Handle'
p3855
sS'kay'
p3856
S'Okay'
p3857
sS'sarge'
p3858
S'Chat up'
p3859
sS'rom'
p3860
S'Read-Only Memory'
p3861
sS'good morning'
p3862
g14
sS'kb'
p3863
S'Kind Bud'
p3864
sS'tpe'
p3865
S'Total Power Exchange'
p3866
sS'second wife and no kids'
p3867
g14
sS'kk'
p3868
S'OK, cool'
p3869
sS'kj'
p3870
S'Killjoy'
p3871
sS'kh'
p3872
S'Kingdom Hearts (RPG)'
p3873
sS'choong'
p3874
S'Good looking, buff'
p3875
sS'km'
p3876
S'Keep Mum'
p3877
sS'hwdp'
p3878
S'Huj W Dupe Policji (Polish - F*** the police)'
p3879
sS'ks'
p3880
S'Kill Steal'
p3881
sS'syau'
p3882
S'Shut Your A$$ Up'
p3883
sS'tpt'
p3884
S'Trailer Park Trash'
p3885
sS'tps'
p3886
S'Totally pointless stuff'
p3887
sS'h2g'
p3888
S'Had to Go'
p3889
sS'.com'
p3890
S'Top level domain for commerce'
p3891
sS'rte'
p3892
S'National broadcaster in Ireland'
p3893
sS'hyper'
p3894
S'Over energetic'
p3895
sS'gold'
p3896
g14
sS'cdc'
p3897
S'Cult of the Dead Cow'
p3898
sS'rtm'
p3899
S'Read The Manual'
p3900
sS'hyfb'
p3901
S'Hope You Feel Better'
p3902
sS'cdn'
p3903
S'Canadian'
p3904
sS'ootb'
p3905
S'Out Of The Box'
p3906
sS'ootc'
p3907
S'Obligatory On-Topic Comment'
p3908
sS'ojd'
p3909
S'Obsessive Jonas (Brothers) Disorder'
p3910
sS'rts'
p3911
S'Real Time Strategy'
p3912
sS'stoned'
p3913
g14
sS'fina'
p3914
S'About to do (something)'
p3915
sS'se'
p3916
S'Special Edition'
p3917
sS'ooto'
p3918
S'Out Of The Office'
p3919
sS'misspelling of wtf'
p3920
g14
sS'bfc'
p3921
S'Big F***ing Can (of 32 oz.Monster energy drink)'
p3922
sS'bfa'
p3923
S'Best Friends Always'
p3924
sS'bfg'
p3925
S'Big Friendly Giant'
p3926
sS'bff'
p3927
S'Best Friends Forever'
p3928
sS'copyright'
p3929
g14
sS'bfd'
p3930
S'Big F***ing Deal'
p3931
sS'bfk'
p3932
S'big fat kiss'
p3933
sS'bfh'
p3934
S'Bitch From Hell'
p3935
sS'bfn'
p3936
S'Bye For Now'
p3937
sS'bfp'
p3938
S'Bad For Pics'
p3939
sS'iwhi'
p3940
S'I Would Hit It'
p3941
sS'snake oil'
p3942
S'Fake medicine'
p3943
sS'sil'
p3944
S'Son-In-Law'
p3945
sS'cotching'
p3946
S'Relaxing, chilling'
p3947
sS'big breasts'
p3948
g14
sS'tevs'
p3949
S'Whatever'
p3950
sS'1314'
p3951
S'Forever (Chinese)'
p3952
sS'hiv'
p3953
S'Human Immunodeficiency Virus'
p3954
sS'weva'
p3955
S'Whatever'
p3956
sS'stg'
p3957
S'Swear To God'
p3958
sS'bofh'
p3959
S'B*stard Operator From Hell'
p3960
sS'crs'
p3961
S"Can't Remember S**t"
p3962
sS'kafm'
p3963
S'Keep Away From Me'
p3964
sS'rft'
p3965
S'Right First Time'
p3966
sS'stc'
p3967
S'Subject to Change'
p3968
sS'sthg'
p3969
S'Something'
p3970
sS'rfc'
p3971
S'Request For Comment'
p3972
sS'stm'
p3973
S'Short Term Memory'
p3974
sS'lmho'
p3975
S'Laughing My Head Off'
p3976
sS"craig's list"
p3977
g14
sS'lwkm'
p3978
S'Laugh Wan Kill Me (LOL)'
p3979
sS'pvp'
p3980
S'Player v Player'
p3981
sS'pvt'
p3982
S'Private'
p3983
sS'sep'
p3984
S"Somebody Else's Problem"
p3985
sS'all day i dream about sex'
p3986
g14
sS'sti'
p3987
S'Sexually Transmitted Infection'
p3988
sS'sed'
p3989
S'Said'
p3990
sS'ard'
p3991
S'Alright'
p3992
sS'dte'
p3993
S'Down To Earth'
p3994
sS'seo'
p3995
S'Search Engine Optimization'
p3996
sS'ark'
p3997
S'Act of Random Kindness'
p3998
sS'big fat friend/female'
p3999
g14
sS'woz'
p4000
S'Was'
p4001
sS'iccl'
p4002
S"I Couldn't Care Less"
p4003
sS'wow'
p4004
S'World Of Warcraft'
p4005
sS'30stm'
p4006
S'30 Seconds To Mars (band)'
p4007
sS'lmgtfy'
p4008
S'Let Me Google That For You'
p4009
sS'wos'
p4010
S'Waste Of Space'
p4011
sS'}:-)'
p4012
S'Devilish smile'
p4013
sS'wtyo'
p4014
S'Whatever Turns You On'
p4015
sS'woe'
p4016
S'What On Earth'
p4017
sS'rite'
p4018
S'Right'
p4019
sS'wof'
p4020
S'While On Fire'
p4021
sS'cqtms'
p4022
S'Chuckle Quietly To Myself'
p4023
sS'wob'
p4024
S'Waste Of Bandwith'
p4025
sS'ikr'
p4026
S'I Know, Right'
p4027
sS'ikt'
p4028
S'I Knew That'
p4029
sS'fgt'
p4030
S'Faggot'
p4031
sS'ydms'
p4032
S"You Don't Make Sense"
p4033
sS'iky'
p4034
S'I Know You'
p4035
sS'quake 1 (game)'
p4036
g14
sS'damhik'
p4037
S"Don't Ask Me How I Know"
p4038
sS'fgs'
p4039
S"For God's Sake"
p4040
sS'tnot'
p4041
S'Take Note Of That'
p4042
sS'pissed'
p4043
S'Angry'
p4044
sS'4gm'
p4045
S'Forgive me'
p4046
sS'c'
p4047
S'See'
p4048
sS'dtp'
p4049
S'Disturbing The Peace'
p4050
sS'f2f'
p4051
S'Face To Face'
p4052
sS'*<:-)'
p4053
S'Clown'
p4054
sS'phishing'
p4055
S'Scamming method used to get personal information'
p4056
sS'wt?'
p4057
S'What The ...? or Who the ...?'
p4058
sS'alol'
p4059
S'Actually Laughing Out Loud'
p4060
sS'blazed'
p4061
S'Stoned'
p4062
sS'f2p'
p4063
S'Free To Play'
p4064
sS'bad influence'
p4065
g14
sS'cheap alcoholic beverage'
p4066
g14
sS'f2t'
p4067
S'Free To Talk'
p4068
sS'pdf'
p4069
S'Portable Document Format'
p4070
sS"bread 'n' butter"
p4071
g14
sS'afap'
p4072
S'As Far As Possible'
p4073
sS'tgp'
p4074
S'Thumbnail Gallery Post'
p4075
sS'2nyt'
p4076
S'Tonight'
p4077
sS'drunk'
p4078
g14
sS'sweet'
p4079
g14
sS'wwyd'
p4080
S'What Would You Do?'
p4081
sS'ayfr'
p4082
S'are you for real'
p4083
sS'rofl'
p4084
S'Rolling On Floor Laughing'
p4085
sS'lulz'
p4086
S'LOL'
p4087
sS'role playing game'
p4088
g14
sS'nota bene (latin for please note)'
p4089
g14
sS'wdyt'
p4090
S'what do you think?'
p4091
sS'duh'
p4092
S'Of course'
p4093
sS'dui'
p4094
S'Driving Under the Influence'
p4095
sS'pp'
p4096
S'Penis'
p4097
sS'swm'
p4098
S'Single White Male'
p4099
sS'pw'
p4100
S'Pussy Whipped'
p4101
sS'pt'
p4102
S'Phantasy Tour'
p4103
sS'pz'
p4104
S'Peace'
p4105
sS'tgif'
p4106
S"Thank God It's Friday"
p4107
sS'w4w'
p4108
S'Woman looking for another woman'
p4109
sS'nati'
p4110
S'Cincinnati'
p4111
sS'cbbc'
p4112
S"Children's BBC"
p4113
sS'swf'
p4114
S'Single White Female'
p4115
sS'pb'
p4116
S'Personal Best'
p4117
sS'pc'
p4118
S'Politically Correct'
p4119
sS'pa'
p4120
S'Personal Assistant'
p4121
sS'pg'
p4122
S'Parental Guidance'
p4123
sS'pd'
p4124
S'Public Domain'
p4125
sS'pe'
p4126
S'Physical Education'
p4127
sS'pj'
p4128
S'Poor/Personal Joke'
p4129
sS'pk'
p4130
S'Player Kill (MMORPG)'
p4131
sS'ph'
p4132
S'Pantyhose'
p4133
sS'pi'
p4134
S'Greek letter'
p4135
sS'po'
p4136
S'Pissed Off'
p4137
sS'pm'
p4138
S'Private Message'
p4139
sS'monosodium glutamate'
p4140
g14
sS'imao'
p4141
S'In My Arrogant Opinion'
p4142
sS'ram'
p4143
S'Random Access Memory'
p4144
sS'roy'
p4145
S'Relative of yours?'
p4146
sS'nrn'
p4147
S'No Reply Necessary'
p4148
sS'gay'
p4149
S'Homosexual'
p4150
sS'wlyk'
p4151
S'Will Let You Know'
p4152
sS'gas'
p4153
S'Flatulence'
p4154
sS'gap'
p4155
S'Gay And Proud'
p4156
sS'gam'
p4157
S'Gay Asian Male'
p4158
sS'gal'
p4159
S'Get A Life'
p4160
sS'2moz'
p4161
S'Tomorrow'
p4162
sS'pebcak'
p4163
S'Problem Exists Between Chair And Keyboard'
p4164
sS'bilf'
p4165
S"Brother/Boss I'd Like to F***"
p4166
sS'lool'
p4167
S'Laughing Outlandishly Out Loud'
p4168
sS'iyf'
p4169
S'In Your Face'
p4170
sS'mlk'
p4171
S'Malakas'
p4172
sS'have you got a ...?'
p4173
g14
sS'batch'
p4174
S'Bitch'
p4175
sS'ilyvm'
p4176
S'I Love You Very Much'
p4177
sS'hnos'
p4178
S'Home Network Operating System'
p4179
sS'fug'
p4180
S'F***ing Ugly'
p4181
sS'fud'
p4182
S'Fear, Uncertainty, and Doubt'
p4183
sS'fub'
p4184
S'Fat Ugly Bastard'
p4185
sS'dyjhiw'
p4186
S"Don't You Just Hate It When..."
p4187
sS'hbd'
p4188
S'Happy Birthday'
p4189
sS'vod'
p4190
S'Video-On-Demand'
p4191
sS'(:'
p4192
S'Happy'
p4193
sS'motd'
p4194
S'Message Of The Day'
p4195
sS'<3'
p4196
S'Love (heart shape)'
p4197
sS'bu2m'
p4198
S'Been Up To Much?'
p4199
sS'jpg'
p4200
S'Image file format'
p4201
sS'bbfn'
p4202
S'Bye Bye For Now'
p4203
sS'skype'
p4204
S'Internet telephone'
p4205
sS'yatb'
p4206
S'You Are The Best'
p4207
sS'hoas'
p4208
S'Hold On A Second'
p4209
sS'gimp'
p4210
S'Uncool/Stupid person'
p4211
sS'italy'
p4212
S'I Trust And Love You'
p4213
sS'p/x'
p4214
S'Part exchange'
p4215
sS'cam for cam'
p4216
g14
sS'boi'
p4217
S'Boy'
p4218
sS'tqm'
p4219
S'Te Quiero Mucho (I Like You A Lot)'
p4220
sS'ogim'
p4221
S"Oh God It's Monday"
p4222
sS'gmafb'
p4223
S'Give Me A F***ing Break'
p4224
sS'shag'
p4225
S'Have sex'
p4226
sS'9'
p4227
S'Parent watching'
p4228
sS'hby'
p4229
S"How 'Bout You"
p4230
sS'hwga'
p4231
S'Here We Go Again'
p4232
sS'till tomorrow'
p4233
g14
sS'ohn'
p4234
S'Oh Hell, No!'
p4235
sS'lymywy'
p4236
S'Love You, Miss You, Want You'
p4237
sS'syg'
p4238
S'Shut Your Gob'
p4239
sS'home time'
p4240
g14
sS'syk'
p4241
S'So You Know'
p4242
sS'tiff'
p4243
S'Argument, disagreement'
p4244
sS'sym'
p4245
S'Shut Your Mouth'
p4246
sS'ohac'
p4247
S'Own House And Car'
p4248
sS'lxg'
p4249
S'League of Extraordinary Gentlemen'
p4250
sS'gonna'
p4251
S'Going to'
p4252
sS'syt'
p4253
S'See You Tomorrow'
p4254
sS'2u2'
p4255
S'To You Too'
p4256
sS'pmigbom'
p4257
S'Put Mind In Gear, Before Opening Mouth!'
p4258
sS'pse'
p4259
S'Porn Star Experience'
p4260
sS'stupid idiot'
p4261
g14
sS'byam'
p4262
S'Between You And Me'
p4263
sS'nft'
p4264
S'No Further Text'
p4265
sS'kno'
p4266
S'Know'
p4267
sS'hagd'
p4268
S'Have A Good Day'
p4269
sS'hage'
p4270
S'Have A Good Evening'
p4271
sS'lic'
p4272
S'Like I Care'
p4273
sS'hagn'
p4274
S'Have A Good Night'
p4275
sS'hago'
p4276
S'Have A Good One'
p4277
sS'hags'
p4278
S'Have a great summer'
p4279
sS'hagt'
p4280
S'Have A Great Time'
p4281
sS'g2h'
p4282
S'Go To Hell'
p4283
sS'y'
p4284
S'Why?'
p4285
sS'moo'
p4286
S'Matter of Opinion'
p4287
sS'gsm'
p4288
S'Global System for Mobile communications'
p4289
sS'wdywtta'
p4290
S'What Do You Want To Talk About?'
p4291
sS'mtfbwy'
p4292
S'May The Force Be With You'
p4293
sS'lda'
p4294
S'Long Distance Affair'
p4295
sS'>.<'
p4296
S'Frustrated, angry, upset, in pain'
p4297
sS'ldo'
p4298
S'Like Duh, Obviously'
p4299
sS'ldn'
p4300
S'London'
p4301
sS'tft'
p4302
S'The Frozen Throne (Warcraft III)'
p4303
sS'lds'
p4304
S'Latter Day Saint'
p4305
sS'cocky'
p4306
S'Thinking too highly of yourself'
p4307
sS'ceebs'
p4308
S'CBA'
p4309
sS'bm4l'
p4310
S'Best Mates For Life'
p4311
sS'twimc'
p4312
S'To Whom It May Concern'
p4313
sS'boed'
p4314
S'Book of Exalted Deeds (MMORPG)'
p4315
sS'rgr'
p4316
S'Roger'
p4317
sS'cut'
p4318
S'See You Tomorrow'
p4319
sS'cus'
p4320
S'Friend'
p4321
sS'cuz'
p4322
S'Because'
p4323
sS'm4t'
p4324
S'Man looking for a transvestite'
p4325
sS'sff'
p4326
S'So F***ing Funny'
p4327
sS'hsik'
p4328
S'How Should I Know?'
p4329
sS'nwot'
p4330
S'New Without Tags (eBay)'
p4331
sS'cum'
p4332
S'Semen'
p4333
sS'cul'
p4334
S'See You Later.'
p4335
sS'bin'
p4336
S'Buy It Now'
p4337
sS'bil'
p4338
S'Brother In-Law'
p4339
sS'ight'
p4340
S'Alright'
p4341
sS'k33l'
p4342
S'Kill'
p4343
sS'bif'
p4344
S'Butt In Front'
p4345
sS'dwisnwid'
p4346
S'Do What I Say Not What I Do.'
p4347
sS'bia'
p4348
S'Bitch'
p4349
sS'wbu'
p4350
S'What About You?'
p4351
sS'whale tail'
p4352
S'Shape of g-string under low trousers'
p4353
sS'kthx'
p4354
S'OK, Thanks'
p4355
sS'my own creation'
p4356
g14
sS'itma'
p4357
S"It's That Man Again"
p4358
sS'wiv'
p4359
S'with'
p4360
sS'no offence'
p4361
g14
sS'm33t'
p4362
S'Meet'
p4363
sS'wag1'
p4364
S"What's going on?"
p4365
sS'eff'
p4366
S'F***'
p4367
sS'eeg'
p4368
S'Extremely Evil Grin'
p4369
sS'exclamation of happiness'
p4370
g14
sS'igtg'
p4371
S'I got to go'
p4372
sS'w/o'
p4373
S'Without'
p4374
sS'tote'
p4375
S'Carry'
p4376
sS'b4'
p4377
S'Before'
p4378
sS'limb'
p4379
S'Laughing In My Brain'
p4380
sS'b7'
p4381
S'Banned (B7=B&=Band)'
p4382
sS'wby'
p4383
S'What (A)bout You?'
p4384
sS'larp'
p4385
S'Live Action Role Play'
p4386
sS'spot on'
p4387
S'Absolutely correct, perfect'
p4388
sS'pron'
p4389
S'Porn'
p4390
sS'epin'
p4391
S'Epic Win'
p4392
sS'lime'
p4393
S'Hang out, socialise'
p4394
sS't_t'
p4395
S'Crying'
p4396
sS'bd'
p4397
S'Big Deal'
p4398
sS'bf'
p4399
S'Boyfriend'
p4400
sS'bg'
p4401
S'Bad Game'
p4402
sS'run'
p4403
g14
sS'ba'
p4404
S'Bad A**'
p4405
sS'bb'
p4406
S'Big Brother'
p4407
sS'bc'
p4408
S'Before Christ'
p4409
sS'bl'
p4410
S'Bad Luck'
p4411
sS'bm'
p4412
S'Bowel Movement'
p4413
sS'ufb'
p4414
S'Un F***ing Believable'
p4415
sS'bo'
p4416
S'Body Odour'
p4417
sS'bh'
p4418
S'Be Happy'
p4419
sS'bi'
p4420
S'Bisexual'
p4421
sS'bj'
p4422
S'Blow Job'
p4423
sS'bk'
p4424
S'Burger King'
p4425
sS'bt'
p4426
S'BitTorrent'
p4427
sS'bv'
p4428
S'Bad Vibe'
p4429
sS'br'
p4430
S'Best Regards'
p4431
sS'bs'
p4432
S'Bull S**t'
p4433
sS'gmab'
p4434
S'Give Me A Break'
p4435
sS'rut'
p4436
S'Are You There'
p4437
sS'mmamp'
p4438
S'Meet Me At My Place'
p4439
sS'bgf'
p4440
S'Best Girl/Guy Friend'
p4441
sS'saf'
p4442
S'Single Asian Female'
p4443
sS'idt'
p4444
S"I Don't Think"
p4445
sS'idr'
p4446
S"I Don't Remember"
p4447
sS'bgm'
p4448
S'Background Music'
p4449
sS'maching'
p4450
S'Going at maximum Speed (skiing or biking)'
p4451
sS'idn'
p4452
S"I Don't kNow"
p4453
sS'cmar'
p4454
S'Cry Me A River'
p4455
sS'idm'
p4456
S"It Doesn't Matter"
p4457
sS'bgt'
p4458
S"Britain's Got Talent (TV show)"
p4459
sS'idk'
p4460
S"I Don't Know"
p4461
sS'ranga'
p4462
S'Redhead (derogatory)'
p4463
sS'idi'
p4464
S'I Doubt It'
p4465
sS'idd'
p4466
S'Indeed'
p4467
sS'gammd'
p4468
S'Go Ahead Make My Day'
p4469
sS'idc'
p4470
S'I Dont Care'
p4471
sS'idgi'
p4472
S"I Don't Get It"
p4473
sS'amplitude modulation (radio signal)'
p4474
g14
sS'imfo'
p4475
S'In My F***ing Opinion'
p4476
sS'nsa'
p4477
S'No Strings Attached'
p4478
sS'haxx0r'
p4479
S'Hacker'
p4480
sS'nsf'
p4481
S'Not Sufficient Funds'
p4482
sS'tif'
p4483
S'That Is Funny'
p4484
sS'nothing'
p4485
g14
sS'mcr'
p4486
S'My Chemical Romance (band)'
p4487
sS'nss'
p4488
S'No S**t, Sherlock'
p4489
sS'<><'
p4490
S'Fish'
p4491
sS'game of soldiers'
p4492
g14
sS'spam'
p4493
S'Unsolicted email'
p4494
sS'bion'
p4495
S'Believe It Or Not'
p4496
sS'u2'
p4497
S'You Too'
p4498
sS'enconomical'
p4499
g14
sS'bruk'
p4500
S'Broken'
p4501
sS'tys'
p4502
S'Thank You Sir'
p4503
sS'+rep'
p4504
S'Boost reputation on XBox Live'
p4505
sS'butters'
p4506
S'Ugly'
p4507
sS'lyaaf'
p4508
S'Love You As A Friend'
p4509
sS'used to emphasise the next word'
p4510
g14
sS'msf'
p4511
S'Male Seeking Female'
p4512
sS'pwn'
p4513
S'Own, dominate'
p4514
sS'a small brown bird from new zealand'
p4515
g14
sS'gdgd'
p4516
S'Good Good'
p4517
sS'utc'
p4518
S'Under The Counter'
p4519
sS'cia'
p4520
S'Central Intelligence Agency'
p4521
sS'uy'
p4522
S'Up yours'
p4523
sS'faak'
p4524
S'Falling Asleep At Keyboard'
p4525
sS'asaic'
p4526
S'As Soon As I Can'
p4527
sS'ut'
p4528
S'Unreal Tournament'
p4529
sS'uw'
p4530
S"yoU're Welcome"
p4531
sS'uv'
p4532
S'Unpleasant Visual'
p4533
sS'cio'
p4534
S'Check It Out'
p4535
sS'us'
p4536
S'United States'
p4537
sS'ur'
p4538
S'Your'
p4539
sS's**t for brains'
p4540
g14
sS'ihysm'
p4541
S'I Hate You So Much'
p4542
sS'office lady'
p4543
g14
sS'uk'
p4544
S'are you ok'
p4545
sS'ug'
p4546
S'Ugly'
p4547
sS'tcfn'
p4548
S'Take Care For Now'
p4549
sS'froob'
p4550
S'Free Noob. Non-paying player'
p4551
sS'sxc'
p4552
S'Sexy'
p4553
sS'sxe'
p4554
S'Straightedge (no drink, no drugs, no sex)'
p4555
sS'ko'
p4556
S'Knock Out'
p4557
sS'dilf'
p4558
S"Dad I'd Like to F***"
p4559
sS'chao'
p4560
S'Goodbye (Spanish)'
p4561
sS'dftt'
p4562
S"Don't Feed The Troll"
p4563
sS'where you going?'
p4564
g14
sS'aiya'
p4565
S'Cantonese expression of exasperation'
p4566
sS'lyf'
p4567
S'Love You Forever'
p4568
sS'chav'
p4569
S'poorly educated, vulgar youth'
p4570
sS'b&m'
p4571
S'Bricks and Mortar'
p4572
sS'lyb'
p4573
S'Love You, Bye'
p4574
sS'lyl'
p4575
S'Love You Lots'
p4576
sS'lym'
p4577
S'Love You More'
p4578
sS'kl'
p4579
S'Cool'
p4580
sS'lyk'
p4581
S'Let you know'
p4582
sS'nab'
p4583
S'N00B'
p4584
sS'nac'
p4585
S'Not A Chance'
p4586
sS'naa'
p4587
S'not at all'
p4588
sS'nad'
p4589
S'Testicle'
p4590
sS'nah'
p4591
S'No'
p4592
sS'pff'
p4593
S'Expression of disagreement'
p4594
sS'nao'
p4595
S'Now'
p4596
sS'hafl'
p4597
S'Heart Attack From Laughing'
p4598
sS'nap'
p4599
S'Not A Problem'
p4600
sS'reputation'
p4601
g14
sS'tptb'
p4602
S'The Powers That Be'
p4603
sS'b/c'
p4604
S'Because'
p4605
sS'idrgaf'
p4606
S"I Don't Really Give A F***"
p4607
sS'syf'
p4608
S'Shut Your Face'
p4609
sS'tflms'
p4610
S'Thanks For Letting Me Share'
p4611
sS'dos'
p4612
S'Disk Operating System'
p4613
sS'@_@'
p4614
S'Hypnotized, dazed'
p4615
sS'bad mother f***er'
p4616
g14
sS'noob'
p4617
S'New, inexperienced person'
p4618
sS'agh'
p4619
S"Ain't Gonna Happen"
p4620
sS'dvd'
p4621
S'Digital Versatile Disc'
p4622
sS'gr8'
p4623
S'Great'
p4624
sS'wuwcb'
p4625
S'What do You Want to Chat about?'
p4626
sS'hella'
p4627
S'Really, very'
p4628
sS'kmn'
p4629
S'Kill Me Now'
p4630
sS'tttt'
p4631
S'These Things Take Time'
p4632
sS'agt'
p4633
S"America's Got Talent (TV show)"
p4634
sS'nasl'
p4635
S'Name, Age, Sex, Location'
p4636
sS'agp'
p4637
S'Accelerated Graphics Port'
p4638
sS'gw'
p4639
S'Good Work'
p4640
sS'gt'
p4641
S'Grand Touring'
p4642
sS'gr'
p4643
S'Gotta Run'
p4644
sS'edd'
p4645
S'Estimated Delivery Date'
p4646
sS'gp'
p4647
S'Game Plan'
p4648
sS'edj'
p4649
S'Energy Drink Junkie'
p4650
sS'fitch'
p4651
S'F***ing bitch'
p4652
sS'kats'
p4653
S'Kick Ass This Summer'
p4654
sS'haistk'
p4655
S'How Am I Supposed To Know?'
p4656
sS'gz'
p4657
S'Congratulations'
p4658
sS'gg'
p4659
S'Good Game'
p4660
sS'gf'
p4661
S'Girlfriend'
p4662
sS'ge'
p4663
S'Good Evening'
p4664
sS'gd'
p4665
S'Gangsta Disciple'
p4666
sS'ga'
p4667
S'Go Ahead'
p4668
sS'gn'
p4669
S'Good Night'
p4670
sS'gm'
p4671
S'General Motors'
p4672
sS'gl'
p4673
S'Good Luck'
p4674
sS'gj'
p4675
S'Good Job'
p4676
sS'gi'
p4677
S'Government Issue'
p4678
sS'gh'
p4679
S'Guitar Hero'
p4680
sS'lyao'
p4681
S'Laughing Your @$$ Off'
p4682
sS'cuppa'
p4683
S'Cup of (usually) tea'
p4684
sS'blaze'
p4685
S'Smoke Weed'
p4686
sS'white woman'
p4687
g14
sS'all the time'
p4688
g14
sS'2k4u'
p4689
S'To Cool For You'
p4690
sS'orange county'
p4691
g14
sS'bffle'
p4692
S'Best Friends For Like Ever'
p4693
sS'mug'
p4694
S'Rob someboby'
p4695
sS'fwiw'
p4696
S"For What It's Worth"
p4697
sS'wb'
p4698
S'Welcome Back'
p4699
sS'stfu'
p4700
S'Shut The F*** Up'
p4701
sS'g9'
p4702
S'Good Night'
p4703
sS'g8'
p4704
S'Great'
p4705
sS'0/'
p4706
S'Waving'
p4707
sS'cod4'
p4708
S'Call Of Duty 4 (Game)'
p4709
sS'facebook'
p4710
S'A social networking site'
p4711
sS'best f***ing friends for life'
p4712
g14
sS'tutu'
p4713
S'Female private part'
p4714
sS'aayf'
p4715
S'As Always, Your Friend'
p4716
sS'snide'
p4717
S'Fake or counterfeit'
p4718
sS'stfw'
p4719
S'Search the F***ing Web'
p4720
sS'tmk'
p4721
S'To My Knowledge'
p4722
sS'tra'
p4723
S'Bye'
p4724
sS'stext'
p4725
S'Sexy text message'
p4726
sS'aeap'
p4727
S'As Early As Possible'
p4728
sS'tmm'
p4729
S'Tell Me More'
p4730
sS'lqtms'
p4731
S'Laughing Quietly To Myself'
p4732
sS'iybtyba'
p4733
S"If You Believe That You'll Believe Anything"
p4734
sS'kit'
p4735
S'Keep In Touch'
p4736
sS'tmo'
p4737
S'Tomorrow'
p4738
sS'evt'
p4739
S"Ei Voi Tiet\xc3\xa4\xc3\xa4 (Finnish for 'How Am I Supposed to Know')"
p4740
sS'fls'
p4741
S'Flu-Like Symptoms'
p4742
sS'cfo'
p4743
S'Chief Financial Officer'
p4744
sS'cfm'
p4745
S'Come F*** Me'
p4746
sS'booty'
p4747
S'Backside (usually female)'
p4748
sS'dyor'
p4749
S'Do Your Own Research'
p4750
sS'big time'
p4751
S'More than usual'
p4752
sS'btwitiailwy'
p4753
S'By The Way I Think I Am In Love With You'
p4754
sS'133t'
p4755
S'Elite'
p4756
sS'rrd'
p4757
S'Rick Rolled'
p4758
sS'l2m'
p4759
S'Listening To Music'
p4760
sS'ripped'
p4761
S'Well defined muscles'
p4762
sS'l2p'
p4763
S'Learn To Play'
p4764
sS'l2r'
p4765
S'Learn to Read'
p4766
sS'cfv'
p4767
S'Call For Votes'
p4768
sS'icsl'
p4769
S"I Couldn't/Can't Stop Laughing"
p4770
sS'odg'
p4771
S'Oh Dear God'
p4772
sS'question and answer'
p4773
g14
sS'poke'
p4774
S'Have sex with'
p4775
sS'nmp'
p4776
S'Not My Problem'
p4777
sS'3q'
p4778
S'Thank You'
p4779
sS'tdl'
p4780
S'To Do List'
p4781
sS'cell'
p4782
S'Cellphone'
p4783
sS'good move'
p4784
g14
sS'3g'
p4785
S'Third Generation mobile phone network'
p4786
sS'(_!_)'
p4787
S'A$$'
p4788
sS'pft'
p4789
S'An exlamation of disbelief'
p4790
sS'wdtm'
p4791
S'What Does That Mean?'
p4792
sS'1337'
p4793
S'Elite'
p4794
sS'c7ay'
p4795
S'Gay'
p4796
sS'contact in facebook'
p4797
g14
sS'waz up'
p4798
S"What's Up?"
p4799
sS'orite'
p4800
S'Alright, hello'
p4801
sS'mkay'
p4802
S'Okay'
p4803
sS'wagwarn'
p4804
S"What's going on?"
p4805
sS'management buy-out'
p4806
g14
sS'nmf'
p4807
S'Not My Fault'
p4808
sS'vbg'
p4809
S'Very Big Grin'
p4810
sS'skool'
p4811
S'School'
p4812
sS'cts'
p4813
S'Chuckles To Self'
p4814
sS'alaska'
p4815
g14
sS'aawy'
p4816
S'And Also With You'
p4817
sS'kutgw'
p4818
S'Keep Up The Good Work'
p4819
sS'vbs'
p4820
S'Very Big Smile'
p4821
sS'ctf'
p4822
S'Capture The Flag'
p4823
sS'syl'
p4824
S'See You Later'
p4825
sS'ctc'
p4826
S'call the cell'
p4827
sS'ctn'
p4828
S"Can't Talk Now"
p4829
sS'rdj'
p4830
S'Robert Downey Jr.'
p4831
sS'iykwim'
p4832
S'If You Know What I Mean'
p4833
sS'wif'
p4834
S'With'
p4835
sS'wid'
p4836
S'With'
p4837
sS'wic'
p4838
S'Women, Infants and Children'
p4839
sS'xx'
p4840
S'Kiss Kiss'
p4841
sS'app'
p4842
S'Application (computer program)'
p4843
sS'good idea'
p4844
g14
sS'apu'
p4845
S'As Per Usual'
p4846
sS'apj'
p4847
S'apple bottom jeans'
p4848
sS'tds'
p4849
S'Technical Dificulties'
p4850
sS'limh'
p4851
S'Laughing In My Head'
p4852
sS'api'
p4853
S'Application Programming Interface'
p4854
sS'wip'
p4855
S'work in progress'
p4856
sS'apb'
p4857
S'All Points Bulletin'
p4858
sS'h4x0r'
p4859
S'Hacker'
p4860
sS'cloud'
p4861
S'The Internet (non-local storage, software etc)'
p4862
sS'ape'
p4863
S'Mad, crazy'
p4864
sS'cha'
p4865
S'Yes'
p4866
sS'gtfooh'
p4867
S'Get The F*** Out Of Here'
p4868
sS'toftt'
p4869
S'Take One For The Team'
p4870
sS'fem'
p4871
S'The more feminane lesbian'
p4872
sS'uss'
p4873
S'United States Ship'
p4874
sS'roxor'
p4875
S'Rocks, Awesome'
p4876
sS'kyb'
p4877
S'Kick Your Butt'
p4878
sS'skeen'
p4879
S'I See , Seen'
p4880
sS'wrud'
p4881
S'What are you doing?'
p4882
sS'pfa'
p4883
S'Please Find Attached'
p4884
sS'pfb'
p4885
S'Please Find Below'
p4886
sS'iir'
p4887
S'Idiot in room'
p4888
sS'ttth'
p4889
S'Talk To The Hand'
p4890
sS':-('
p4891
S'Sad'
p4892
sS'jtlyk'
p4893
S'Just To let You Know'
p4894
sS'popper'
p4895
S'Amyl Nitrate'
p4896
sS'speed of light'
p4897
g14
sS'wywh'
p4898
S'Wish You Were Here'
p4899
sS'wtii'
p4900
S'What time Is It?'
p4901
sS'botts'
p4902
S'Back On To The Subject'
p4903
sS'f'
p4904
S'F***'
p4905
sS'blotto'
p4906
S'Drunk'
p4907
sS'alie'
p4908
S'Init'
p4909
sS'mw4mw'
p4910
S'Man and Woman looking for another Man and Woman'
p4911
sS'crickets'
p4912
S'Said after a lame joke to break the silence'
p4913
sS'of'
p4914
S'Old Fart'
p4915
sS'aight'
p4916
S'All right'
p4917
sS'renob'
p4918
S'Boner backwards'
p4919
sS'potus'
p4920
S'President of the United States'
p4921
sS'dwai'
p4922
S"Don't Worry About It"
p4923
sS'tat'
p4924
S'Tattoo>BR>Rubbish, junk'
p4925
sS'syrs'
p4926
S'See You Real Soon'
p4927
sS'muaha'
p4928
S'An evil laugh'
p4929
sS'onoz'
p4930
S'Oh No'
p4931
sS'wasteman'
p4932
S'Worthless person, waste of space'
p4933
sS'7daw'
p4934
S'Seven Days A Week'
p4935
sS'tay'
p4936
S'Thinking About You'
p4937
sS'trap'
p4938
S'Place for drug dealing'
p4939
sS'tae'
p4940
S'Trial And Error'
p4941
sS'bcnu'
p4942
S'Be Seeing You'
p4943
sS'no reserve'
p4944
g14
sS'tai'
p4945
S'Think About It'
p4946
sS'afn'
p4947
S"that's All For Now"
p4948
sS'lamf'
p4949
S'Like A Mother F***er'
p4950
sS'afi'
p4951
S'A Fire Inside (Band)'
p4952
sS'afk'
p4953
S'Away From Keyboard'
p4954
sS'nackers'
p4955
S'Testicles'
p4956
sS'aamof'
p4957
S'As A Matter Of Fact'
p4958
sS'aff'
p4959
S'Affirmative'
p4960
sS'lamo'
p4961
S'Mispelling of LMAO'
p4962
sS'afc'
p4963
S'Away From Computer'
p4964
sS'sic'
p4965
S'Latin sicut (just as) - apparent mistake'
p4966
sS'lamp'
p4967
S'look at my pic'
p4968
sS'dwf'
p4969
S'Divorced White Female'
p4970
sS'sif'
p4971
S'As If'
p4972
sS'aft'
p4973
S'About F***ing Time'
p4974
sS'dwi'
p4975
S'Deal with it'
p4976
sS'hafta'
p4977
S'Have To'
p4978
sS'dwl'
p4979
S'Dying With Laughter'
p4980
sS'dwm'
p4981
S'Divorced White Male'
p4982
sS'hawt'
p4983
S'Hot'
p4984
sS'wu'
p4985
S'Whats Up?'
p4986
sS'fitb'
p4987
S'Fill In The Blanks'
p4988
sS'warez'
p4989
S'Cracked/pirate software'
p4990
sS'npc'
p4991
S'Non Player Character (MMORPG)'
p4992
sS'trdmc'
p4993
S'Tears Running Down My Cheeks'
p4994
sS'idfc'
p4995
S"I Don't F***ing Care"
p4996
sS'npz'
p4997
S'No Problems'
p4998
sS'siw'
p4999
S'someone is watching'
p5000
sS'idfk'
p5001
S"I Don't F***ing Know"
p5002
sS'cmiiw'
p5003
S"Correct Me If I'm wrong."
p5004
sS'married but available'
p5005
g14
sS'ot'
p5006
S'Off Topic'
p5007
sS'wt'
p5008
S'What'
p5009
sS'bing'
p5010
S"But It's Not Google"
p5011
sS'lame'
p5012
S'Stupid, Unoriginal'
p5013
sS'naru'
p5014
S'Not A Registered User'
p5015
sS'jfdi'
p5016
S'Just F***ing Do It'
p5017
sS'idgara'
p5018
S"I Don't Give A Rat's A**"
p5019
sS'%)'
p5020
S'Drunk, giddy'
p5021
sS'gl hf'
p5022
S'Good Luck, Have Fun'
p5023
sS'sorry to bother you'
p5024
g14
sS'baby gangster'
p5025
g14
sS'imwtk'
p5026
S'Inquiring minds want to know'
p5027
sS'best friends for all eternity'
p5028
g14
sS'lf'
p5029
S'Looking For'
p5030
sS'lg'
p5031
S'Little Girl'
p5032
sS'ld'
p5033
S'Link Dead (Disconnection From Internet)'
p5034
sS'jwtlyk'
p5035
S'just wanted to let you know'
p5036
sS'something really good'
p5037
g14
sS'pmbymhmmfswgas'
p5038
S'Pardon Me, But You Must Have Mistaken Me For Someone Who Gives A S**t'
p5039
sS'la'
p5040
S'Cantonese Exclamation'
p5041
sS'lo'
p5042
S'Hello'
p5043
sS'byt'
p5044
S'Bright Young Thing'
p5045
sS'wiifm'
p5046
S"What's In It For Me?"
p5047
sS'wdmb'
p5048
S'Will Do My Best'
p5049
sS'sia'
p5050
S'Sorry I Asked'
p5051
sS'lh'
p5052
S'Living Hell'
p5053
sS'li'
p5054
S'Laughing Inside'
p5055
sS'lv'
p5056
S'Louis Vuitton'
p5057
sS'lw'
p5058
S'Lucky Win'
p5059
sS'lu'
p5060
S'Love You'
p5061
sS'ls'
p5062
S'Lovesick'
p5063
sS'private room'
p5064
g14
sS'h3'
p5065
S'Halo 3 (Game)'
p5066
sS'sig'
p5067
S'Signature'
p5068
sS'lz'
p5069
S'Landing Zone'
p5070
sS'ly'
p5071
S'Love You'
p5072
sS'scotus'
p5073
S'Supreme Court Of The United States'
p5074
sS'pewpew'
p5075
S'Laser sound'
p5076
sS'nada'
p5077
S'Nothing'
p5078
sS'too good'
p5079
g14
sS'dat'
p5080
S'That'
p5081
sS'rfp'
p5082
S'Request for Proposal'
p5083
sS'ibtl'
p5084
S'In Before the Lock'
p5085
sS'kiss'
p5086
S'Keep It Simple, Stupid'
p5087
sS'jmho'
p5088
S'Just My Humble Opinion'
p5089
sS'diku'
p5090
S'Do I Know You?'
p5091
sS"i'm so sorry"
p5092
g14
sS'nfg'
p5093
S'No F***ing Good'
p5094
sS'your mom'
p5095
g14
sS'nfa'
p5096
S'No Further Action'
p5097
sS'tish'
p5098
S'S**t'
p5099
sS'nfn'
p5100
S'Normal For Norfolk'
p5101
sS'nfi'
p5102
S'No Freakin Idea'
p5103
sS'nfw'
p5104
S'No F****** Way'
p5105
sS'kpc'
p5106
S'Keep Parents Clueless'
p5107
sS'l2'
p5108
S'Learn To'
p5109
sS'bromance'
p5110
S'Non-sexual relationship between two men'
p5111
sS'bttt'
p5112
S'Back To The Top'
p5113
sS'wel'
p5114
S'Whatever, Loser'
p5115
sS'nye'
p5116
S'New Years Eve'
p5117
sS'l8'
p5118
S'Late'
p5119
sS'lfg'
p5120
S'Looking For Group'
p5121
sS'thizzing'
p5122
S'Tripping on Ecstasy'
p5123
sS'bump'
p5124
S'Bring Up My Post'
p5125
sS'for trade'
p5126
g14
sS'lfk'
p5127
S'Light French Kissing'
p5128
sS'n/c'
p5129
S'Not Cool'
p5130
sS'bw '
p5131
S'Beautiful Woman'
p5132
sS'88'
p5133
S'Heil Hitler (H is 8th letter)'
p5134
sS'suka'
p5135
S'Bitch (Russian)'
p5136
sS'lfp'
p5137
S'Looking For Party (in MMORPG)'
p5138
sS'sob'
p5139
S'son of a Bitch'
p5140
sS'86'
p5141
S'Get rid of something'
p5142
sS's^'
p5143
S"What's Up"
p5144
sS'giyf'
p5145
S'Google Is Your Friend'
p5146
sS'bag'
p5147
S'Get'
p5148
sS'ps & qs'
p5149
S'Pints and Quarts'
p5150
sS'rep'
p5151
S'Represent'
p5152
sS'rev'
p5153
S'Make an engine go faster'
p5154
sS'chilaxing'
p5155
S'Chilling and relaxing'
p5156
sS'tth'
p5157
S'Trying Too Hard'
p5158
sS'm2d'
p5159
S'Make my day'
p5160
sS'real time'
p5161
g14
sS'411'
p5162
S'Information'
p5163
sS'snm'
p5164
S'Say No More'
p5165
sS'dmaf'
p5166
S'dont make a fuss'
p5167
sS'coed'
p5168
S'Coeducational (men and women together)'
p5169
sS'eco'
p5170
S'Ecological'
p5171
sS'4rl?'
p5172
S'For Real?'
p5173
sS'ipod'
p5174
S'MP3 player from Apple'
p5175
sS'shux'
p5176
S'Shucks, expression of modesty'
p5177
sS'my bad'
p5178
S'(Flippant) apology'
p5179
sS'zzz'
p5180
S'Sleepy, bored or tired'
p5181
sS'wannabe'
p5182
S'Someone who wants to be what they are not'
p5183
sS'claim to fame'
p5184
g14
sS'bwl'
p5185
S'Bursting With Laughter'
p5186
sS'ltr'
p5187
S'Long term relationship'
p5188
sS'ltp'
p5189
S'Lost The Plot'
p5190
sS'g'
p5191
S'Grin'
p5192
sS'sthu'
p5193
S'Shut The Hell Up'
p5194
sS'(8)'
p5195
S'Musical note (MSN)'
p5196
sS'419'
p5197
S'Nigerian Email Scam'
p5198
sS'stsp'
p5199
S'Same Time Same Place'
p5200
sS'hhok'
p5201
S'Ha Ha, Only Kidding'
p5202
sS'hhoj'
p5203
S'Ha Ha, Only Joking'
p5204
sS'ltg'
p5205
S'Learn To Google'
p5206
sS'just chilling'
p5207
g14
sS'slol'
p5208
S'Seriously Laughing Out Loud'
p5209
sS'ubrs'
p5210
S'Upper Black Rock Spire (WoW)'
p5211
sS'hold your horses'
p5212
g14
sS'be back'
p5213
g14
sS'btdtgttsawio'
p5214
S'Been There Done That Got The T-shirt And Wore It Out'
p5215
sS'audio/video'
p5216
g14
sS'ltm'
p5217
S'Laughing To Myself'
p5218
sS'ltl'
p5219
S'Living The Life'
p5220
sS'459'
p5221
S'I Love You (phone digits for ILY)'
p5222
sS'bamn'
p5223
S'By Any Means Necessary'
p5224
sS'ihy'
p5225
S'I Hate You'
p5226
sS'trdmf'
p5227
S'Tears Running Down My Face'
p5228
sS'wts'
p5229
S'Want To Sell'
p5230
sS'ihs'
p5231
S'I Hope So'
p5232
sS'bamf'
p5233
S'Bad A** Mother F***er'
p5234
sS'yarly'
p5235
S'Yeah Really'
p5236
sS'4get'
p5237
S'Forget'
p5238
sS'iht'
p5239
S'I Hate This'
p5240
sS'ihu'
p5241
S'I Hate You'
p5242
sS'ttus'
p5243
S'Talk To You Soon.'
p5244
sS'iwaly'
p5245
S'I Will Always Love You'
p5246
sS'pgp'
p5247
S'Pretty Good Privacy (encryption)'
p5248
sS'ihm'
p5249
S'i hate mondays'
p5250
sS'nyse'
p5251
S'New York Stock Exchange'
p5252
sS'wtt'
p5253
S'Want To Trade'
p5254
sS'starting price'
p5255
g14
sS'qq'
p5256
S'Cry More Noob'
p5257
sS'myspace'
p5258
S'A social networking site'
p5259
sS'pots'
p5260
S"Parents Over The Shoulder (parents watching, I can't really talk)"
p5261
sS'poto'
p5262
S'Phantom Of The Opera'
p5263
sS'wyl'
p5264
S'Whatever You Like'
p5265
sS'please text back'
p5266
g14
sS'nps'
p5267
S'No Problems'
p5268
sS'laterz'
p5269
S'See you later, goodbye'
p5270
sS'cuzzo'
p5271
S'Friend'
p5272
sS'rsn'
p5273
S'Real Soon Now'
p5274
sS'cyt'
p5275
S'See You Tomorrow'
p5276
sS'smyb'
p5277
S'Show Me Your Boobs'
p5278
sS'out of body experience'
p5279
g14
sS'cya'
p5280
S'See Ya'
p5281
sS't4m'
p5282
S'Transvestite looking for a man'
p5283
sS'gsoh'
p5284
S'Good Sense Of Humor'
p5285
sS'cyo'
p5286
S'See You Online'
p5287
sS'cym'
p5288
S'Check Your Mail'
p5289
sS'cyl'
p5290
S'Catch You Later'
p5291
sS'buttocks'
p5292
g14
sS'khyf'
p5293
S'Know How You Feel'
p5294
sS'tsfy'
p5295
S'Tough S**t For You'
p5296
sS'member of parliament'
p5297
g14
sS'ybs'
p5298
S"You'll Be Sorry"
p5299
sS'bef'
p5300
S'Best Enemies Forever'
p5301
sS'beg'
p5302
S'Big Evil Grin'
p5303
sS'g4u'
p5304
S'Good For You'
p5305
sS'ber'
p5306
S'Beyond Economical Repair'
p5307
sS'pve'
p5308
S'Player versus Environment (MMORPG)'
p5309
sS'pmji'
p5310
S'Pardon My Jumping In'
p5311
sS'ua4i'
p5312
S'You Asked For It'
p5313
sS'very well put'
p5314
g14
sS'bet'
p5315
S'Black Entertainment Television'
p5316
sS'mpua'
p5317
S'Master Pick Up Artist'
p5318
sS'\\m/'
p5319
S'Horns, metal salute'
p5320
sS'sw'
p5321
S'So What?'
p5322
sS'ib2d'
p5323
S'I Beg To Differ'
p5324
sS'otm'
p5325
S'Of The Moment'
p5326
sS'inrs'
p5327
S"It's Not Rocket Science"
p5328
sS'irdk'
p5329
S'i really dont know'
p5330
sS'neek'
p5331
S'A cross between a Nerd and a Geek'
p5332
sS'irdc'
p5333
S"I Really Don't Care"
p5334
sS'tht '
p5335
S'That'
p5336
sS'hiwth'
p5337
S'Hate It When That Happens'
p5338
sS'q'
p5339
S'Thank You'
p5340
sS'jpa'
p5341
S'Just Playing Around'
p5342
sS'mil'
p5343
S'Mother In Law'
p5344
sS'min'
p5345
S'minute'
p5346
sS'denial of service (attack)'
p5347
g14
sS'soad'
p5348
S'System Of A Down (Band)'
p5349
sS'tldr'
p5350
S"Too long; Didn't Read"
p5351
sS'tough guy'
p5352
g14
sS'soab'
p5353
S'Son Of A Bitch'
p5354
sS'istr'
p5355
S'I Seem To Recall'
p5356
sS'wtft'
p5357
S'What The French Toast (polite WTF)'
p5358
sS'so'
p5359
S'Significant Other'
p5360
sS'coke'
p5361
S'Cocaine'
p5362
sS';-)'
p5363
S'Wink'
p5364
sS'lameo'
p5365
S'Lame Person'
p5366
sS'sol'
p5367
S'$h*t Outta Luck'
p5368
sS'wha'
p5369
S'What'
p5370
sS'sfx'
p5371
S'Sound Effects'
p5372
sS'aww'
p5373
S'Any Which Way'
p5374
sS'sfw'
p5375
S'Safe For Work'
p5376
sS'otk'
p5377
S'Over The Knee'
p5378
sS'pyt'
p5379
S'Pretty Young Thing'
p5380
sS'awp'
p5381
S'Arctic Warfare Police sniper rifle'
p5382
sS'wht'
p5383
S'What'
p5384
sS'sfm'
p5385
S'So F***ing Much'
p5386
sS'thth'
p5387
S'To Hot to Handle'
p5388
sS'xlnt'
p5389
S'Excellent'
p5390
sS'iyswim'
p5391
S'If You See What I Mean'
p5392
sS'sfb'
p5393
S'So F***ing Bored'
p5394
sS'kyso'
p5395
S'Knock Yourself Out'
p5396
sS'awa'
p5397
S'As Well As'
p5398
sS'sfa'
p5399
S'Sweet F*** All'
p5400
sS'foyl'
p5401
S'F*** Off You Loser'
p5402
sS'odst'
p5403
S'Orbital Drop Shock Trooper (Gaming)'
p5404
sS'urm'
p5405
S'You Are Mad'
p5406
sS'ukwur'
p5407
S'you know who you are'
p5408
sS'imvu'
p5409
S'Instant Messaging Virtual Universe'
p5410
sS'dinner jacket'
p5411
g14
sS'labtop'
p5412
S'Laptop'
p5413
sS'obgyn'
p5414
S'Gynecologist (OBstetrics and GYNecology)'
p5415
sS'wot'
p5416
S'What'
p5417
sS'ampere'
p5418
g14
sS'suave, well dressed man'
p5419
g14
sS'<g>'
p5420
S'Grin'
p5421
sS'=p'
p5422
S'Sticking tongue out'
p5423
sS'computer language'
p5424
g14
sS'cam to cam'
p5425
g14
sS'pussy'
p5426
S'Vagina'
p5427
sS'anyway'
p5428
g14
sS'=d'
p5429
S':D'
p5430
sS'fafwoa'
p5431
S'For A Friend Without Access (when about to ask a silly question)'
p5432
sS'wymm'
p5433
S'Will You Marry Me?'
p5434
sS'tpam'
p5435
S'The Person Above Me'
p5436
sS'bbwl'
p5437
S'Be Back Way Later'
p5438
sS'nagl'
p5439
S'Not A Good Look'
p5440
sS'=i'
p5441
S'Indifference'
p5442
sS'wtgp?'
p5443
S'Want To Go Private?'
p5444
sS'q1'
p5445
S'First Quarter'
p5446
sS'roofie'
p5447
S'Rohypnol or any date-rape drug'
p5448
sS'=]'
p5449
S'Happy'
p5450
sS'q8'
p5451
S'Kuwait'
p5452
sS'jat'
p5453
S'Just A Thought'
p5454
sS'cache'
p5455
S'Store for temporary computer files'
p5456
sS'ngh'
p5457
S'not gonna happen'
p5458
sS'jas'
p5459
S'Just A Second'
p5460
sS'=['
p5461
S'Sad'
p5462
sS'bug'
p5463
S'Bother, annoy'
p5464
sS'jam'
p5465
S'Just A Minute.'
p5466
sS'10q'
p5467
S'Thank you'
p5468
sS'lemme'
p5469
S'Let Me'
p5470
sS'2bh'
p5471
S'To Be Honest'
p5472
sS'wtg'
p5473
S'Way To Go'
p5474
sS'mua'
p5475
S'Make-Up Alley (website)'
p5476
sS'idst'
p5477
S'If Destroyed, Still True'
p5478
sS'bnwt'
p5479
S'Brand New With Tags'
p5480
sS'tbx'
p5481
S'To Be Exact'
p5482
sS'aiic'
p5483
S'As If I Care'
p5484
sS'onnta'
p5485
S'Oh No, Not This Again'
p5486
sS'dope'
p5487
S'Heroin'
p5488
sS'999'
p5489
S'Emergency number '
p5490
sS'hard of hearing'
p5491
g14
sS'tbw'
p5492
S"Tiny Brained Wiper (of other people's bottoms)"
p5493
sS"bed 'n' breakfast"
p5494
g14
sS'123'
p5495
S'I agree'
p5496
sS'aiit'
p5497
S'Alright'
p5498
sS'tba'
p5499
S'To Be Announced'
p5500
sS'reverend'
p5501
g14
sS'tbc'
p5502
S'To Be Continued'
p5503
sS'ymmv'
p5504
S'Your Mileage May Vary'
p5505
sS'tbd'
p5506
S'To Be Decided'
p5507
sS'tbf'
p5508
S'To Be Fair'
p5509
sS'gbf'
p5510
S'Gay Best Friend'
p5511
sS'rtff'
p5512
S'Read The F***ing FAQ'
p5513
sS'dps'
p5514
S'Damage Per Second (MMORPG)'
p5515
sS'qt'
p5516
S'Cutie'
p5517
sS'h'
p5518
S'Hug'
p5519
sS'pass the buck'
p5520
g14
sS'rtfi'
p5521
S'Read The Flipping Instructions'
p5522
sS'single woman and no kids'
p5523
g14
sS'qa'
p5524
S'Quality Assurance'
p5525
sS'j4l'
p5526
S'Just for Laughs'
p5527
sS'gbu'
p5528
S'God Bless You'
p5529
sS'dpi'
p5530
S'Dots Per Inch'
p5531
sS'gby'
p5532
S'God Bless You'
p5533
sS'btt'
p5534
S'Bump To Top (forum posts)'
p5535
sS'btw'
p5536
S'By The Way'
p5537
sS'ugly person'
p5538
g14
sS'bty'
p5539
S'Back To You'
p5540
sS'qtf'
p5541
S'Quoted For Truth'
p5542
sS'wd'
p5543
S'well done'
p5544
sS'bta'
p5545
S'But Then Again....'
p5546
sS'btb'
p5547
S'By The By'
p5548
sS'btm'
p5549
S'Be There Moment'
p5550
sS'wc'
p5551
S'WelCome'
p5552
sS'wtd'
p5553
S'What The Deuce?'
p5554
sS'no s**t'
p5555
g14
sS'gmail'
p5556
S'Google web email service'
p5557
sS'wditot'
p5558
S"Why Didn't I Think Of That"
p5559
sS'ibyp'
p5560
S'I Beg Your Pardon'
p5561
sS'plmk'
p5562
S'Please Let Me Know'
p5563
sS'wtv'
p5564
S'Whatever'
p5565
sS'luv'
p5566
S'Love'
p5567
sS'ymmd'
p5568
S'You Made My Day'
p5569
sS'lua'
p5570
S'Love You Always'
p5571
sS'well played'
p5572
g14
sS'all the way alive'
p5573
g14
sS'ooml'
p5574
S'Out Of My League'
p5575
sS'lul'
p5576
S'Lame Uncomfortable Laugh'
p5577
sS'pants'
p5578
S'Rubbish'
p5579
sS'ken'
p5580
S'Know (Scottish)'
p5581
sS'sho'
p5582
S'Sure'
p5583
sS'iydm'
p5584
S"If You Don't Mind"
p5585
sS'le'
p5586
S'Law Enforcement'
p5587
sS'p2p'
p5588
S'Peer To Peer'
p5589
sS'wotlk'
p5590
S'Wrath Of The Lich King (WoW)'
p5591
sS'no one knows'
p5592
g14
sS'wibni'
p5593
S"Wouldn't It Be Nice If"
p5594
sS'wtc'
p5595
S'What The Crap'
p5596
sS'wtb'
p5597
S'Want To Buy'
p5598
sS'quit f***ing talking'
p5599
g14
sS'tlc'
p5600
S'Tender Loving Care'
p5601
sS'etc'
p5602
S'et cetera (and so on)'
p5603
sS'tla'
p5604
S'Three Letter Acronym'
p5605
sS'eta'
p5606
S'Estimated Time of Arrival'
p5607
sS'asshat'
p5608
S'One with their head up their @$$'
p5609
sS'etd'
p5610
S'Estimated Time of Departure'
p5611
sS'tld'
p5612
S'Top Level Domain'
p5613
sS'ws'
p5614
S'Watersports'
p5615
sS'll'
p5616
S'Laugh Loudly, LOL'
p5617
sS'pb&j'
p5618
S'Peanut Butter and Jelly'
p5619
sS'asdfghjkl;'
p5620
S"I'm bored"
p5621
sS'not so fast'
p5622
g14
sS'aa'
p5623
S'Alcoholics Anonymous'
p5624
sS'jlyk'
p5625
S'Just Letting You Know'
p5626
sS'co'
p5627
S'Commanding Officer'
p5628
sS'afaik'
p5629
S'As Far As I Know'
p5630
sS'cc'
p5631
S'Credit Card'
p5632
sS'*_*'
p5633
S'In love, dazed'
p5634
sS'aybabtu'
p5635
S'All Your Base Are Belong To Us'
p5636
sS'cg'
p5637
S'Computer Graphics'
p5638
sS'cf'
p5639
S'Cluster F***'
p5640
sS'afaic'
p5641
S"As Far As I'm Concerned"
p5642
sS'rpc'
p5643
S'Role Playing Chat'
p5644
sS'rpg'
p5645
S'Rocket Propelled Grenade'
p5646
sS'cs'
p5647
S'Counter-Strike'
p5648
sS'cr'
p5649
S'Credit'
p5650
sS'afair'
p5651
S'As Far As I Remember'
p5652
sS'pbuh'
p5653
S'Peace Be Upon Him'
p5654
sS'ianad'
p5655
S'I Am Not A Doctor'
p5656
sS'bbl'
p5657
S'Be Back Later'
p5658
sS'yay'
p5659
S'Cocaine'
p5660
sS'ub2'
p5661
S'You Be Too'
p5662
sS'tbch'
p5663
S'To Be Completely Honest'
p5664
sS'bbg'
p5665
S'Best Be Going'
p5666
sS'bbe'
p5667
S'Babe'
p5668
sS'143'
p5669
S'I Love You (letters in each word)'
p5670
sS'bbc'
p5671
S'British Broadcasting Corporation'
p5672
sS'jit'
p5673
S'Young gangster'
p5674
sS'yas'
p5675
S'Emphatic Yes'
p5676
sS'wtm'
p5677
S"What's The Matter?"
p5678
sS'npnt'
p5679
S'No Picture, No Talk'
p5680
sS'yal'
p5681
S'Girl (Hispanic)'
p5682
sS'bbz'
p5683
S'Babes'
p5684
sS'bby'
p5685
S'Baby'
p5686
sS'automated teller machine (cash machine)'
p5687
g14
sS'bbw'
p5688
S'Big Beautiful Woman'
p5689
sS'bbs'
p5690
S'Be Back Soon'
p5691
sS'bbq'
p5692
S'Better Be Quick'
p5693
sS'yab'
p5694
S'You Are Banned'
p5695
sS'homosexual'
p5696
g14
sS'otl'
p5697
S'Out To Lunch'
p5698
sS'lp'
p5699
S'Long Play (record)'
p5700
sS'qq4u'
p5701
S'Quick Question For You'
p5702
sS'lgb'
p5703
S'Lesbian/Gay/Bisexual'
p5704
sS'hmu'
p5705
S'Hit Me Up'
p5706
sS'otb'
p5707
S'Off The boat'
p5708
sS'dnpm'
p5709
S'Darn Near P***** Myself'
p5710
sS'otd'
p5711
S'On The Dot'
p5712
sS'ild'
p5713
S'Ich Liebe Dich (I Love You)'
p5714
sS'otf'
p5715
S'Off Topic Forum'
p5716
sS'ycmiu'
p5717
S"You Couldn't Make It Up"
p5718
sS'tfti'
p5719
S'Thanks For The Info'
p5720
sS'-.-'
p5721
S'Annoyance'
p5722
sS'otp'
p5723
S'One True Pairing'
p5724
sS'nicker'
p5725
S'Pound, quid (British currency)'
p5726
sS'repetition'
p5727
g14
sS'ott'
p5728
S'Over The Top'
p5729
sS'ac/dc'
p5730
S'Rock Band'
p5731
sS'hmb'
p5732
S'Hit Me Back (reply)'
p5733
sS'match of the day'
p5734
g14
sS'yhgasp'
p5735
S'You Have Got A Serious Problem'
p5736
sS'homes'
p5737
S'Homeboy'
p5738
sS'multi'
p5739
S'Player with multiple online accounts'
p5740
sS'cow'
p5741
S'Offensive term for a woman'
p5742
sS'xoxoxo'
p5743
S'Hugs And Kisses'
p5744
sS'aikrn'
p5745
S'All I know right now'
p5746
sS'=.='
p5747
S'Tired'
p5748
sS'yss'
p5749
S'You Suck Severely'
p5750
sS'mauh'
p5751
S'Kiss'
p5752
sS'rsvp'
p5753
S"Repondez s'il vous plait (Please reply)"
p5754
sS'dbnt'
p5755
S"Don't Bother Next Time"
p5756
sS'kools'
p5757
S'Mentholated cigarettes'
p5758
sS'tja'
p5759
S'Hi (Swedish)'
p5760
sS'jftr'
p5761
S'Just For The Record'
p5762
sS'ilm'
p5763
S'i lige m\xc3\xa5de (the same to you)'
p5764
sS'vd'
p5765
S'Venereal Disease'
p5766
sS'aw'
p5767
S'Attention Whore'
p5768
sS'uggo'
p5769
S'Ugly person'
p5770
sS'lusm'
p5771
S'Love You So Much'
p5772
sS'ilyam'
p5773
S'I Love You As a Mate'
p5774
sS'sitd'
p5775
S'Still In The Dark'
p5776
sS'ltmq'
p5777
S'Laughing To Myself Quietly'
p5778
sS'vn'
p5779
S'Very Nice'
p5780
sS'vr'
p5781
S'Virtual Reality'
p5782
sS'pdq'
p5783
S'Pretty Damn Quick'
p5784
sS'vv'
p5785
S'Very Very'
p5786
sS'hard to find'
p5787
g14
sS'thug'
p5788
S'Violent criminal'
p5789
sS'ili'
p5790
S'I Love It'
p5791
sS'ava'
p5792
S'Angels and Airwaves (Band)'
p5793
sS'professional time waster'
p5794
g14
sS'tattoo'
p5795
g14
sS'over achiever'
p5796
g14
sS'cini'
p5797
S'cinema'
p5798
sS'bbias'
p5799
S'Be Back In A Sec'
p5800
sS'yuppie'
p5801
S'Young Urban Professional'
p5802
sS'nok'
p5803
S'Not Okay'
p5804
sS'anon'
p5805
S'Unknown person'
p5806
sS's2r'
p5807
S'Send 2 Receive'
p5808
sS'ilu'
p5809
S'I Love You'
p5810
sS'cint'
p5811
S'C***'
p5812
sS'fubar'
p5813
S'Fouled Up Beyond All Recognition'
p5814
sS'cod'
p5815
S'Cash On Delivery'
p5816
sS'yoo'
p5817
S'You'
p5818
sS'transvestite'
p5819
g14
sS'http'
p5820
S'Hyper-Text Transfer Protocol'
p5821
sS'yooh'
p5822
S'You'
p5823
sS'iow'
p5824
S'In Other Words'
p5825
sS'iou'
p5826
S'I Owe You'
p5827
sS'tbqh'
p5828
S'To Be Quite Honest'
p5829
sS'phd'
p5830
S'Doctor of Philosphy'
p5831
sS'iom'
p5832
S'Isle Of Man'
p5833
sS'ikmty'
p5834
S'I Know More Than You'
p5835
sS'ioi'
p5836
S'Indication of Interest'
p5837
sS'ioh'
p5838
S"I'm Outta Here"
p5839
sS'php'
p5840
S'Personal Home Page'
p5841
sS'genetically modified'
p5842
g14
sS'tisnf'
p5843
S'That is so not fair'
p5844
sS'ofc'
p5845
S'Of Course'
p5846
sS'pitb'
p5847
S'Pain In The Butt'
p5848
sS'wyp'
p5849
S"What's Your Problem?"
p5850
sS'phat'
p5851
S'Pretty Hot And Tempting'
p5852
sS'dissing'
p5853
S'Being disrespectful'
p5854
sS'ntbcw'
p5855
S'Not To Be Confused With'
p5856
sS'pown'
p5857
S'PWN'
p5858
sS'pda'
p5859
S'Personal Digital Assistant'
p5860
sS"lover's quarrel"
p5861
g14
sS'uno'
p5862
S'You know'
p5863
sS"what's your point?"
p5864
g14
sS'yfos'
p5865
S"You're Full Of S**t"
p5866
sS'okw/e'
p5867
S'ok what-ever'
p5868
sS'dosh'
p5869
S'Money'
p5870
sS'btsoom'
p5871
S'Beat the stufing out of me'
p5872
sS'maggot'
p5873
S'Fan of the band Slipknot'
p5874
sS'close of play'
p5875
g14
sS'mfm'
p5876
S'2 Males and a Female'
p5877
sS'tcl'
p5878
S'Tool Command Language'
p5879
sS'bltn'
p5880
S'Better Late Than Never'
p5881
sS'tck'
p5882
S'Third Culture Kid'
p5883
sS'ftasb'
p5884
S'Faster Than A Speeding Bullet'
p5885
sS'ymw'
p5886
S"You're Most Welcome"
p5887
sS'tcb'
p5888
S'Taking Care of Business'
p5889
sS'cheer the f*** up'
p5890
g14
sS'otay'
p5891
S'Okay'
p5892
sS'weg'
p5893
S'Wicked Evil Grin'
p5894
sS'roses'
p5895
S'Money'
p5896
sS'detai'
p5897
S"Don't Even Think About It"
p5898
sS'gma'
p5899
S'Good Morning, America'
p5900
sS'wdym'
p5901
S'What Do You Mean?'
p5902
sS'ibtd'
p5903
S'In Before The Delete'
p5904
sS'cbfa'
p5905
S"Can't Be F***ing Arsed"
p5906
sS'add'
p5907
S'Attention Deficit Disorder'
p5908
sS'nato'
p5909
S'No Action Talk Only'
p5910
sS'adn'
p5911
S'Any Day Now'
p5912
sS'skl'
p5913
S'School'
p5914
sS'adm'
p5915
S'Aye Dios Mio! (Spanish for Oh My God!)'
p5916
sS'ski'
p5917
S"Spend Kids' Inheritance"
p5918
sS'spst'
p5919
S'Same Place, Same Time'
p5920
sS'gmt'
p5921
S'Greenwich Mean Time'
p5922
sS'fyb'
p5923
S'F*** You, Bitch'
p5924
sS'lhao'
p5925
S'Laughing His/Her A$$ Off'
p5926
sS'fya'
p5927
S'For Your Amusement'
p5928
sS'fyf'
p5929
S'F*** Your Face'
p5930
sS'btdt'
p5931
S'Been There Done That'
p5932
sS'fye'
p5933
S'For Your Entertainment'
p5934
sS'fyi'
p5935
S'For Your Information'
p5936
sS'fyn'
p5937
S'Fine'
p5938
sS'fyl'
p5939
S'F*** Your Life'
p5940
sS'ynwa'
p5941
S"You'll Never Walk Alone"
p5942
sS'fyp'
p5943
S'Fixed Your Post'
p5944
sS'desi'
p5945
S'Someone from the Indian subcontinent'
p5946
sS'lysfm'
p5947
S'Love You So F***ing Much'
p5948
sS'hcit'
p5949
S'How Cool Is That?'
p5950
sS'nvm'
p5951
S'Nevermind'
p5952
sS'password'
p5953
g14
sS'imeo'
p5954
S'In My Educated Opinion'
p5955
sS'mhm'
p5956
S'To accept or say yes'
p5957
sS'jonas brothers'
p5958
g14
sS'ahem'
p5959
S'Throat clearing sound'
p5960
sS'sk8'
p5961
S'skate'
p5962
sS'rotk'
p5963
S'Return of the King (Tolkien)'
p5964
sS'htfu'
p5965
S'Hurry The F*** Up'
p5966
sS'chick'
p5967
S'Girl'
p5968
sS'rotf'
p5969
S'Rolling On The Floor (laughing is implied)'
p5970
sS'jlt'
p5971
S'Just like that'
p5972
sS'gjoac'
p5973
S'Go Jump Off A Cliff'
p5974
sS'qed'
p5975
S'Quod Erat Demonstrandum (it has been proved)'
p5976
sS'arigato'
p5977
S'Thank You (Japanese)'
p5978
sS'5150'
p5979
S'Police code for crazy person on the loose'
p5980
sS'twitter'
p5981
S'A social networking site'
p5982
sS'wgas'
p5983
S'Who Gives A S**t?'
p5984
sS'111'
p5985
S'Excited'
p5986
sS'i actually laughed'
p5987
g14
sS'tyfays'
p5988
S'Thank You For All Your Support'
p5989
sS'tmr'
p5990
S'Tomorrow'
p5991
sS'est'
p5992
S'Eastern Standard Time'
p5993
sS'write back'
p5994
g14
sS'tmw'
p5995
S'tomorrow'
p5996
sS'tmz'
p5997
S'Celebrity news'
p5998
sS'shone'
p5999
S'Slut'
p6000
sS'tma'
p6001
S'Take My Advice'
p6002
sS'tmb'
p6003
S'Text Me Back'
p6004
sS'esd'
p6005
S'Electro-Static Discharge'
p6006
sS'esc'
p6007
S'Escape key'
p6008
sS'bottom, butt'
p6009
g14
sS'nfs'
p6010
S'Not For Sale'
p6011
sS'syfm'
p6012
S'Shut your F***ing Mouth'
p6013
sS'tml'
p6014
S'Thank Me Later'
p6015
sS'kwel'
p6016
S'Cool'
p6017
sS'?'
p6018
S'What?'
p6019
sS'esh'
p6020
S'Donkey (Armenian)'
p6021
sS'cwyl'
p6022
S'Chat With You Later.'
p6023
sS'poets'
p6024
S"Piss Off Early Tomorrow's Saturday"
p6025
sS'ilysmm'
p6026
S'I Love You So Much More'
p6027
sS'ps'
p6028
S'Post Script'
p6029
sS'twhs'
p6030
S"That's What He Said"
p6031
sS'adgth'
p6032
S'All Dogs Go To Heaven'
p6033
sS'ilysmb'
p6034
S'I Love You So Much Baby'
p6035
sS'slut'
p6036
S'Sexually promiscuous person, usually female'
p6037
sS'dyhwih'
p6038
S'Do You Hear What I Hear?'
p6039
sS'gufn'
p6040
S'Grounded Until Further Notice'
p6041
sS'parent over shoulder'
p6042
g14
sS'aite'
p6043
S'Alright'
p6044
sS':-*'
p6045
S'Kiss'
p6046
sS'dylm'
p6047
S'Do You Love/Like Me?'
p6048
sS'idrk'
p6049
S"I Don't Really Know"
p6050
sS':-)'
p6051
S'Smile'
p6052
sS'idrc'
p6053
S"I Don't Really Care"
p6054
sS'taf'
p6055
S'Tell A Friend'
p6056
sS'hot'
p6057
S'Healing Over Time'
p6058
sS'mofo'
p6059
S'Mother F***er'
p6060
sS'burma'
p6061
S'Be Upstairs Ready My Angel'
p6062
sS'h8'
p6063
S'hate'
p6064
sS'argumentative'
p6065
g14
sS'hsmf'
p6066
S'Holy S**t Mother F***er'
p6067
sS'alternating current'
p6068
g14
sS'inorite'
p6069
S'I Know, Right?'
p6070
sS'nkotb'
p6071
S'New Kid On The Block'
p6072
sS'bsod'
p6073
S'Blue Screen Of Death (Windows)'
p6074
sS'bsof'
p6075
S'Big Smile On Face'
p6076
sS'good time'
p6077
g14
sS'swagg '
p6078
S'Style, coolness, confidence'
p6079
sS'bffae'
p6080
S'Best Friends Forever And Ever'
p6081
sS'nuke'
p6082
S'To attack with a nuclear weapon'
p6083
sS'really simple syndication'
p6084
g14
sS'rct'
p6085
S'Roller Coster Tycoon'
p6086
sS'gtho'
p6087
S'Get The Hell Out'
p6088
sS'life story'
p6089
g14
sS'yrg'
p6090
S'You Are Good!'
p6091
sS'lfm'
p6092
S'Looking For More'
p6093
sS'yrs'
p6094
S'Years'
p6095
sS'vat'
p6096
S'Value Added Tax'
p6097
sS'hy'
p6098
S'Hell Yes'
p6099
sS'industrial light and magic'
p6100
g14
sS'hs'
p6101
S'Headshot'
p6102
sS'hp'
p6103
S'Harry Potter'
p6104
sS'hq'
p6105
S'High Quality'
p6106
sS'hw'
p6107
S'Homework'
p6108
sS'ht'
p6109
S'Hat Tip (Thanks)'
p6110
sS'hu'
p6111
S'Hollywood Undead (Band)'
p6112
sS'hj'
p6113
S'Hand Job'
p6114
sS'hh'
p6115
S'Holding Hands'
p6116
sS'hi'
p6117
g14
sS'bun'
p6118
S'Smoke marijuana'
p6119
sS'ho'
p6120
S'Hold On'
p6121
sS'bum'
p6122
S'A homeless person'
p6123
sS'hb'
p6124
S'Hurry Back'
p6125
sS'hc'
p6126
S'Holy Cow'
p6127
sS'hf'
p6128
S'Have Fun'
p6129
sS'hg'
p6130
S'Holy Grail'
p6131
sS'bud'
p6132
S'Marijuana'
p6133
sS'dmf'
p6134
S'Dumb Mother F***er'
p6135
sS'dmg'
p6136
S'Damage'
p6137
sS'j'
p6138
S'Joking'
p6139
sS'dmn'
p6140
S'Damn'
p6141
sS'swt'
p6142
S'Sweat'
p6143
sS'byob'
p6144
S'Bring your own beer'
p6145
sS'lyke '
p6146
S'Like'
p6147
sS'drug of choice'
p6148
g14
sS'dmy'
p6149
S"Don't Mess Yourself"
p6150
sS'knoob'
p6151
S'Knob + Noob'
p6152
sS'atys'
p6153
S'Anything You Say'
p6154
sS'neway'
p6155
S'Anyway'
p6156
sS'pib'
p6157
S'Pain In the Bum/Butt'
p6158
sS'pic'
p6159
S'Picture'
p6160
sS'tttty'
p6161
S'Time To Talk To You'
p6162
sS'nri'
p6163
S'Non-Resident Indian'
p6164
sS'<>'
p6165
S'Not equal'
p6166
sS'myl'
p6167
S'Miss You Loads'
p6168
sS'ink'
p6169
S'I Never Knew'
p6170
sS'pir'
p6171
S'Parent In Room'
p6172
sS'bcc'
p6173
S'Blind Carbon Copy'
p6174
sS'inb'
p6175
S"I'm Not Bothered"
p6176
sS'oao'
p6177
S'Over And Out'
p6178
sS'hpv'
p6179
S'Human Papillomavirus (sexually transmitted disease)'
p6180
sS'sics'
p6181
S'Sitting In Chair Snickering'
p6182
sS'weml'
p6183
S'Whatever Major Loser'
p6184
sS'sbd'
p6185
S'Silent But Deadly'
p6186
sS'book'
p6187
S'Cool (predictive text )'
p6188
sS'dwbh'
p6189
S"Don't Worry, Be Happy"
p6190
sS'boon'
p6191
S'Someone who has been a NOOB for ages'
p6192
sS'oap'
p6193
S'Old Age Pensioner'
p6194
sS"ratio of circle's diameter to its circumference"
p6195
g14
sS'stat'
p6196
S'Immediately (from Latin statim)'
p6197
sS'mcd'
p6198
S"McDonald's"
p6199
sS'wgat'
p6200
S'Misspelling of What'
p6201
sS'iitywtmwykm'
p6202
S'If I Tell You What This Means Will You Kiss Me?'
p6203
sS'lmno'
p6204
S'Leave My Name Out'
p6205
sS'kinda'
p6206
S'Kind Of'
p6207
sS'wgaf'
p6208
S'Who Gives A F*ck?'
p6209
sS'stan'
p6210
S'Stalker Fan'
p6211
sS'otfl'
p6212
S'On The Floor Laughing'
p6213
sS'eoc'
p6214
S'End Of Conversion'
p6215
sS'eof'
p6216
S'End Of File'
p6217
sS'eoe'
p6218
S'Equal Opportunity Employer'
p6219
sS'eod'
p6220
S'End Of Discussion'
p6221
sS'bcp'
p6222
S'Birth Control Pill'
p6223
sS'hnk'
p6224
S'Hugs and Kisses'
p6225
sS'ggoh'
p6226
S'Gotta Get Outta Here'
p6227
sS'eom'
p6228
S'End Of Message'
p6229
sS'eol'
p6230
S'End Of Lecture'
p6231
sS'eos'
p6232
S'End Of Show'
p6233
sS'eor'
p6234
S'End Of Rant'
p6235
sS'4m'
p6236
S'Forum'
p6237
sS'eot'
p6238
S'End Of Thread (i.e. end of discussion)'
p6239
sS'mmorpg'
p6240
S'Massively Multiplayer Online Role Playing Game'
p6241
sS'baked'
p6242
S'Stoned, Wasted'
p6243
s.